
/home/vboxuser/pico/pico-examples/build/pio/ir_nec/ir_loopback/pio_ir_loopback.elf:     file format elf32-littlearm

Sections:
Idx Name          Size      VMA       LMA       File off  Algn
  0 .boot2        00000100  10000000  10000000  00001000  2**0
                  CONTENTS, ALLOC, LOAD, READONLY, CODE
  1 .text         00004808  10000100  10000100  00001100  2**3
                  CONTENTS, ALLOC, LOAD, READONLY, CODE
  2 .rodata       00000450  10004908  10004908  00005908  2**3
                  CONTENTS, ALLOC, LOAD, READONLY, DATA
  3 .binary_info  00000028  10004d58  10004d58  00005d58  2**2
                  CONTENTS, ALLOC, LOAD, READONLY, DATA
  4 .ram_vector_table 000000c0  20000000  20000000  00007000  2**2
                  ALLOC
  5 .data         000001a4  200000c0  10004d80  000060c0  2**4
                  CONTENTS, ALLOC, LOAD, READONLY, CODE
  6 .uninitialized_data 00000000  20000264  20000264  00006264  2**0
                  CONTENTS
  7 .scratch_x    00000000  20040000  20040000  00006264  2**0
                  CONTENTS
  8 .scratch_y    00000000  20041000  20041000  00006264  2**0
                  CONTENTS
  9 .bss          000003e4  20000268  20000268  00007000  2**3
                  ALLOC
 10 .heap         00000800  2000064c  2000064c  00006264  2**2
                  CONTENTS, READONLY
 11 .stack_dummy  00000800  20041000  20041000  00006a80  2**5
                  CONTENTS, READONLY
 12 .ARM.attributes 00000028  00000000  00000000  00007280  2**0
                  CONTENTS, READONLY
 13 .comment      00000059  00000000  00000000  000072a8  2**0
                  CONTENTS, READONLY
 14 .debug_line   000001bc  00000000  00000000  00007301  2**0
                  CONTENTS, READONLY, DEBUGGING, OCTETS
 15 .debug_line_str 00000097  00000000  00000000  000074bd  2**0
                  CONTENTS, READONLY, DEBUGGING, OCTETS
 16 .debug_info   00000127  00000000  00000000  00007554  2**0
                  CONTENTS, READONLY, DEBUGGING, OCTETS
 17 .debug_abbrev 000000ae  00000000  00000000  0000767b  2**0
                  CONTENTS, READONLY, DEBUGGING, OCTETS
 18 .debug_aranges 00000040  00000000  00000000  00007730  2**3
                  CONTENTS, READONLY, DEBUGGING, OCTETS
 19 .debug_str    0000024b  00000000  00000000  00007770  2**0
                  CONTENTS, READONLY, DEBUGGING, OCTETS
 20 .debug_loc    00000090  00000000  00000000  000079bb  2**0
                  CONTENTS, READONLY, DEBUGGING, OCTETS
 21 .debug_frame  00000028  00000000  00000000  00007a4c  2**2
                  CONTENTS, READONLY, DEBUGGING, OCTETS

/home/vboxuser/pico/pico-examples/build/pio/ir_nec/ir_loopback/pio_ir_loopback.elf:     file format elf32-littlearm


Disassembly of section .boot2:

10000000 <__boot2_start__>:
10000000:	4b32b500 	.word	0x4b32b500
10000004:	60582021 	.word	0x60582021
10000008:	21026898 	.word	0x21026898
1000000c:	60984388 	.word	0x60984388
10000010:	611860d8 	.word	0x611860d8
10000014:	4b2e6158 	.word	0x4b2e6158
10000018:	60992100 	.word	0x60992100
1000001c:	61592102 	.word	0x61592102
10000020:	22f02101 	.word	0x22f02101
10000024:	492b5099 	.word	0x492b5099
10000028:	21016019 	.word	0x21016019
1000002c:	20356099 	.word	0x20356099
10000030:	f844f000 	.word	0xf844f000
10000034:	42902202 	.word	0x42902202
10000038:	2106d014 	.word	0x2106d014
1000003c:	f0006619 	.word	0xf0006619
10000040:	6e19f834 	.word	0x6e19f834
10000044:	66192101 	.word	0x66192101
10000048:	66182000 	.word	0x66182000
1000004c:	f000661a 	.word	0xf000661a
10000050:	6e19f82c 	.word	0x6e19f82c
10000054:	6e196e19 	.word	0x6e196e19
10000058:	f0002005 	.word	0xf0002005
1000005c:	2101f82f 	.word	0x2101f82f
10000060:	d1f94208 	.word	0xd1f94208
10000064:	60992100 	.word	0x60992100
10000068:	6019491b 	.word	0x6019491b
1000006c:	60592100 	.word	0x60592100
10000070:	481b491a 	.word	0x481b491a
10000074:	21016001 	.word	0x21016001
10000078:	21eb6099 	.word	0x21eb6099
1000007c:	21a06619 	.word	0x21a06619
10000080:	f0006619 	.word	0xf0006619
10000084:	2100f812 	.word	0x2100f812
10000088:	49166099 	.word	0x49166099
1000008c:	60014814 	.word	0x60014814
10000090:	60992101 	.word	0x60992101
10000094:	2800bc01 	.word	0x2800bc01
10000098:	4700d000 	.word	0x4700d000
1000009c:	49134812 	.word	0x49134812
100000a0:	c8036008 	.word	0xc8036008
100000a4:	8808f380 	.word	0x8808f380
100000a8:	b5034708 	.word	0xb5034708
100000ac:	20046a99 	.word	0x20046a99
100000b0:	d0fb4201 	.word	0xd0fb4201
100000b4:	42012001 	.word	0x42012001
100000b8:	bd03d1f8 	.word	0xbd03d1f8
100000bc:	6618b502 	.word	0x6618b502
100000c0:	f7ff6618 	.word	0xf7ff6618
100000c4:	6e18fff2 	.word	0x6e18fff2
100000c8:	bd026e18 	.word	0xbd026e18
100000cc:	40020000 	.word	0x40020000
100000d0:	18000000 	.word	0x18000000
100000d4:	00070000 	.word	0x00070000
100000d8:	005f0300 	.word	0x005f0300
100000dc:	00002221 	.word	0x00002221
100000e0:	180000f4 	.word	0x180000f4
100000e4:	a0002022 	.word	0xa0002022
100000e8:	10000100 	.word	0x10000100
100000ec:	e000ed08 	.word	0xe000ed08
	...
100000fc:	7a4eb274 	.word	0x7a4eb274

Disassembly of section .text:

10000100 <__VECTOR_TABLE>:
10000100:	20042000 	.word	0x20042000
10000104:	100001f7 	.word	0x100001f7
10000108:	100001c3 	.word	0x100001c3
1000010c:	100001c5 	.word	0x100001c5
10000110:	100001c1 	.word	0x100001c1
10000114:	100001c1 	.word	0x100001c1
10000118:	100001c1 	.word	0x100001c1
1000011c:	100001c1 	.word	0x100001c1
10000120:	100001c1 	.word	0x100001c1
10000124:	100001c1 	.word	0x100001c1
10000128:	100001c1 	.word	0x100001c1
1000012c:	100001c7 	.word	0x100001c7
10000130:	100001c1 	.word	0x100001c1
10000134:	100001c1 	.word	0x100001c1
10000138:	100001c9 	.word	0x100001c9
1000013c:	100001cb 	.word	0x100001cb
10000140:	100001cd 	.word	0x100001cd
10000144:	100001cd 	.word	0x100001cd
10000148:	100001cd 	.word	0x100001cd
1000014c:	100001cd 	.word	0x100001cd
10000150:	100001cd 	.word	0x100001cd
10000154:	100001cd 	.word	0x100001cd
10000158:	100001cd 	.word	0x100001cd
1000015c:	100001cd 	.word	0x100001cd
10000160:	100001cd 	.word	0x100001cd
10000164:	100001cd 	.word	0x100001cd
10000168:	100001cd 	.word	0x100001cd
1000016c:	100001cd 	.word	0x100001cd
10000170:	100001cd 	.word	0x100001cd
10000174:	100001cd 	.word	0x100001cd
10000178:	100001cd 	.word	0x100001cd
1000017c:	100001cd 	.word	0x100001cd
10000180:	100001cd 	.word	0x100001cd
10000184:	100001cd 	.word	0x100001cd
10000188:	100001cd 	.word	0x100001cd
1000018c:	100001cd 	.word	0x100001cd
10000190:	100001cd 	.word	0x100001cd
10000194:	100001cd 	.word	0x100001cd
10000198:	100001cd 	.word	0x100001cd
1000019c:	100001cd 	.word	0x100001cd
100001a0:	100001cd 	.word	0x100001cd
100001a4:	100001cd 	.word	0x100001cd
100001a8:	100001cd 	.word	0x100001cd
100001ac:	100001cd 	.word	0x100001cd
100001b0:	100001cd 	.word	0x100001cd
100001b4:	100001cd 	.word	0x100001cd
100001b8:	100001cd 	.word	0x100001cd
100001bc:	100001cd 	.word	0x100001cd

100001c0 <isr_invalid>:
100001c0:	be00      	bkpt	0x0000

100001c2 <isr_nmi>:
100001c2:	be00      	bkpt	0x0000

100001c4 <isr_hardfault>:
100001c4:	be00      	bkpt	0x0000

100001c6 <isr_svcall>:
100001c6:	be00      	bkpt	0x0000

100001c8 <isr_pendsv>:
100001c8:	be00      	bkpt	0x0000

100001ca <isr_systick>:
100001ca:	be00      	bkpt	0x0000

100001cc <__unhandled_user_irq>:
100001cc:	f3ef 8005 	mrs	r0, IPSR
100001d0:	3810      	subs	r0, #16

100001d2 <unhandled_user_irq_num_in_r0>:
100001d2:	be00      	bkpt	0x0000

100001d4 <binary_info_header>:
100001d4:	7188ebf2 	.word	0x7188ebf2
100001d8:	10004d58 	.word	0x10004d58
100001dc:	10004d80 	.word	0x10004d80
100001e0:	10000234 	.word	0x10000234
100001e4:	e71aa390 	.word	0xe71aa390

100001e8 <_entry_point>:
100001e8:	2000      	movs	r0, #0
100001ea:	491f      	ldr	r1, [pc, #124]	@ (10000268 <hold_non_core0_in_bootrom+0xa>)
100001ec:	6008      	str	r0, [r1, #0]
100001ee:	c806      	ldmia	r0!, {r1, r2}
100001f0:	f381 8808 	msr	MSP, r1
100001f4:	4710      	bx	r2

100001f6 <_reset_handler>:
100001f6:	481d      	ldr	r0, [pc, #116]	@ (1000026c <hold_non_core0_in_bootrom+0xe>)
100001f8:	6800      	ldr	r0, [r0, #0]
100001fa:	2800      	cmp	r0, #0
100001fc:	d12f      	bne.n	1000025e <hold_non_core0_in_bootrom>
100001fe:	a40d      	add	r4, pc, #52	@ (adr r4, 10000234 <data_cpy_table>)
10000200:	cc0e      	ldmia	r4!, {r1, r2, r3}
10000202:	2900      	cmp	r1, #0
10000204:	d002      	beq.n	1000020c <_reset_handler+0x16>
10000206:	f000 f812 	bl	1000022e <data_cpy>
1000020a:	e7f9      	b.n	10000200 <_reset_handler+0xa>
1000020c:	4918      	ldr	r1, [pc, #96]	@ (10000270 <hold_non_core0_in_bootrom+0x12>)
1000020e:	4a19      	ldr	r2, [pc, #100]	@ (10000274 <hold_non_core0_in_bootrom+0x16>)
10000210:	2000      	movs	r0, #0
10000212:	e000      	b.n	10000216 <bss_fill_test>

10000214 <bss_fill_loop>:
10000214:	c101      	stmia	r1!, {r0}

10000216 <bss_fill_test>:
10000216:	4291      	cmp	r1, r2
10000218:	d1fc      	bne.n	10000214 <bss_fill_loop>

1000021a <platform_entry>:
1000021a:	4917      	ldr	r1, [pc, #92]	@ (10000278 <hold_non_core0_in_bootrom+0x1a>)
1000021c:	4788      	blx	r1
1000021e:	4917      	ldr	r1, [pc, #92]	@ (1000027c <hold_non_core0_in_bootrom+0x1e>)
10000220:	4788      	blx	r1
10000222:	4917      	ldr	r1, [pc, #92]	@ (10000280 <hold_non_core0_in_bootrom+0x22>)
10000224:	4788      	blx	r1
10000226:	be00      	bkpt	0x0000
10000228:	e7fd      	b.n	10000226 <platform_entry+0xc>

1000022a <data_cpy_loop>:
1000022a:	c901      	ldmia	r1!, {r0}
1000022c:	c201      	stmia	r2!, {r0}

1000022e <data_cpy>:
1000022e:	429a      	cmp	r2, r3
10000230:	d3fb      	bcc.n	1000022a <data_cpy_loop>
10000232:	4770      	bx	lr

10000234 <data_cpy_table>:
10000234:	10004d80 	.word	0x10004d80
10000238:	200000c0 	.word	0x200000c0
1000023c:	20000264 	.word	0x20000264
10000240:	10004f24 	.word	0x10004f24
10000244:	20040000 	.word	0x20040000
10000248:	20040000 	.word	0x20040000
1000024c:	10004f24 	.word	0x10004f24
10000250:	20041000 	.word	0x20041000
10000254:	20041000 	.word	0x20041000
10000258:	00000000 	.word	0x00000000
1000025c:	4770      	bx	lr

1000025e <hold_non_core0_in_bootrom>:
1000025e:	4809      	ldr	r0, [pc, #36]	@ (10000284 <hold_non_core0_in_bootrom+0x26>)
10000260:	f003 f8aa 	bl	100033b8 <rom_func_lookup>
10000264:	4700      	bx	r0
10000266:	0000      	.short	0x0000
10000268:	e000ed08 	.word	0xe000ed08
1000026c:	d0000000 	.word	0xd0000000
10000270:	20000268 	.word	0x20000268
10000274:	2000064c 	.word	0x2000064c
10000278:	10001c3d 	.word	0x10001c3d
1000027c:	10000355 	.word	0x10000355
10000280:	10001d31 	.word	0x10001d31
10000284:	00005657 	.word	0x00005657

10000288 <__bi_50>:
10000288:	50520006 5360b3ab 10004c28              ..RP..`S(L..

10000294 <__bi_38>:
10000294:	50520006 02031c86 10004c40              ..RP....@L..

100002a0 <__bi_30>:
100002a0:	50520006 9da22254 10004c50              ..RPT"..PL..

100002ac <__bi_22>:
100002ac:	50520005 68f465de 10004f24              ..RP.e.h$O..

100002b8 <_init>:
100002b8:	b5f8      	push	{r3, r4, r5, r6, r7, lr}
100002ba:	46c0      	nop			@ (mov r8, r8)

100002bc <deregister_tm_clones>:
100002bc:	4804      	ldr	r0, [pc, #16]	@ (100002d0 <deregister_tm_clones+0x14>)
100002be:	4b05      	ldr	r3, [pc, #20]	@ (100002d4 <deregister_tm_clones+0x18>)
100002c0:	b510      	push	{r4, lr}
100002c2:	4283      	cmp	r3, r0
100002c4:	d003      	beq.n	100002ce <deregister_tm_clones+0x12>
100002c6:	4b04      	ldr	r3, [pc, #16]	@ (100002d8 <deregister_tm_clones+0x1c>)
100002c8:	2b00      	cmp	r3, #0
100002ca:	d000      	beq.n	100002ce <deregister_tm_clones+0x12>
100002cc:	4798      	blx	r3
100002ce:	bd10      	pop	{r4, pc}
100002d0:	20000264 	.word	0x20000264
100002d4:	20000264 	.word	0x20000264
100002d8:	00000000 	.word	0x00000000

100002dc <register_tm_clones>:
100002dc:	4806      	ldr	r0, [pc, #24]	@ (100002f8 <register_tm_clones+0x1c>)
100002de:	4907      	ldr	r1, [pc, #28]	@ (100002fc <register_tm_clones+0x20>)
100002e0:	1a09      	subs	r1, r1, r0
100002e2:	108b      	asrs	r3, r1, #2
100002e4:	0fc9      	lsrs	r1, r1, #31
100002e6:	18c9      	adds	r1, r1, r3
100002e8:	b510      	push	{r4, lr}
100002ea:	1049      	asrs	r1, r1, #1
100002ec:	d003      	beq.n	100002f6 <register_tm_clones+0x1a>
100002ee:	4b04      	ldr	r3, [pc, #16]	@ (10000300 <register_tm_clones+0x24>)
100002f0:	2b00      	cmp	r3, #0
100002f2:	d000      	beq.n	100002f6 <register_tm_clones+0x1a>
100002f4:	4798      	blx	r3
100002f6:	bd10      	pop	{r4, pc}
100002f8:	20000264 	.word	0x20000264
100002fc:	20000264 	.word	0x20000264
10000300:	00000000 	.word	0x00000000

10000304 <__do_global_dtors_aux>:
10000304:	b510      	push	{r4, lr}
10000306:	4c07      	ldr	r4, [pc, #28]	@ (10000324 <__do_global_dtors_aux+0x20>)
10000308:	7823      	ldrb	r3, [r4, #0]
1000030a:	2b00      	cmp	r3, #0
1000030c:	d109      	bne.n	10000322 <__do_global_dtors_aux+0x1e>
1000030e:	f7ff ffd5 	bl	100002bc <deregister_tm_clones>
10000312:	4b05      	ldr	r3, [pc, #20]	@ (10000328 <__do_global_dtors_aux+0x24>)
10000314:	2b00      	cmp	r3, #0
10000316:	d002      	beq.n	1000031e <__do_global_dtors_aux+0x1a>
10000318:	4804      	ldr	r0, [pc, #16]	@ (1000032c <__do_global_dtors_aux+0x28>)
1000031a:	e000      	b.n	1000031e <__do_global_dtors_aux+0x1a>
1000031c:	bf00      	nop
1000031e:	2301      	movs	r3, #1
10000320:	7023      	strb	r3, [r4, #0]
10000322:	bd10      	pop	{r4, pc}
10000324:	20000490 	.word	0x20000490
10000328:	00000000 	.word	0x00000000
1000032c:	10004908 	.word	0x10004908

10000330 <frame_dummy>:
10000330:	4b05      	ldr	r3, [pc, #20]	@ (10000348 <frame_dummy+0x18>)
10000332:	b510      	push	{r4, lr}
10000334:	2b00      	cmp	r3, #0
10000336:	d003      	beq.n	10000340 <frame_dummy+0x10>
10000338:	4904      	ldr	r1, [pc, #16]	@ (1000034c <frame_dummy+0x1c>)
1000033a:	4805      	ldr	r0, [pc, #20]	@ (10000350 <frame_dummy+0x20>)
1000033c:	e000      	b.n	10000340 <frame_dummy+0x10>
1000033e:	bf00      	nop
10000340:	f7ff ffcc 	bl	100002dc <register_tm_clones>
10000344:	bd10      	pop	{r4, pc}
10000346:	46c0      	nop			@ (mov r8, r8)
10000348:	00000000 	.word	0x00000000
1000034c:	20000494 	.word	0x20000494
10000350:	10004908 	.word	0x10004908

10000354 <main>:
10000354:	b5f0      	push	{r4, r5, r6, r7, lr}
10000356:	46de      	mov	lr, fp
10000358:	464e      	mov	r6, r9
1000035a:	4657      	mov	r7, sl
1000035c:	4645      	mov	r5, r8
1000035e:	b5e0      	push	{r5, r6, r7, lr}
10000360:	b085      	sub	sp, #20
10000362:	f003 fe81 	bl	10004068 <stdio_init_all>
10000366:	210e      	movs	r1, #14
10000368:	482f      	ldr	r0, [pc, #188]	@ (10000428 <main+0xd4>)
1000036a:	f004 f8dd 	bl	10004528 <nec_tx_init>
1000036e:	0006      	movs	r6, r0
10000370:	210f      	movs	r1, #15
10000372:	482d      	ldr	r0, [pc, #180]	@ (10000428 <main+0xd4>)
10000374:	f004 f9ca 	bl	1000470c <nec_rx_init>
10000378:	1c73      	adds	r3, r6, #1
1000037a:	d048      	beq.n	1000040e <main+0xba>
1000037c:	1c43      	adds	r3, r0, #1
1000037e:	d046      	beq.n	1000040e <main+0xba>
10000380:	2308      	movs	r3, #8
10000382:	469a      	mov	sl, r3
10000384:	4482      	add	sl, r0
10000386:	4653      	mov	r3, sl
10000388:	2701      	movs	r7, #1
1000038a:	2400      	movs	r4, #0
1000038c:	409f      	lsls	r7, r3
1000038e:	4b27      	ldr	r3, [pc, #156]	@ (1000042c <main+0xd8>)
10000390:	3604      	adds	r6, #4
10000392:	469b      	mov	fp, r3
10000394:	4b26      	ldr	r3, [pc, #152]	@ (10000430 <main+0xdc>)
10000396:	4d24      	ldr	r5, [pc, #144]	@ (10000428 <main+0xd4>)
10000398:	9301      	str	r3, [sp, #4]
1000039a:	4b26      	ldr	r3, [pc, #152]	@ (10000434 <main+0xe0>)
1000039c:	00b6      	lsls	r6, r6, #2
1000039e:	9300      	str	r3, [sp, #0]
100003a0:	0021      	movs	r1, r4
100003a2:	2000      	movs	r0, #0
100003a4:	f004 f9a6 	bl	100046f4 <nec_encode_frame>
100003a8:	0022      	movs	r2, r4
100003aa:	2100      	movs	r1, #0
100003ac:	5170      	str	r0, [r6, r5]
100003ae:	4658      	mov	r0, fp
100003b0:	f003 fe4e 	bl	10004050 <__wrap_printf>
100003b4:	2064      	movs	r0, #100	@ 0x64
100003b6:	f000 fdb7 	bl	10000f28 <sleep_ms>
100003ba:	4652      	mov	r2, sl
100003bc:	686b      	ldr	r3, [r5, #4]
100003be:	0092      	lsls	r2, r2, #2
100003c0:	4690      	mov	r8, r2
100003c2:	46a1      	mov	r9, r4
100003c4:	421f      	tst	r7, r3
100003c6:	d113      	bne.n	100003f0 <main+0x9c>
100003c8:	4643      	mov	r3, r8
100003ca:	595c      	ldr	r4, [r3, r5]
100003cc:	ab02      	add	r3, sp, #8
100003ce:	0020      	movs	r0, r4
100003d0:	1dda      	adds	r2, r3, #7
100003d2:	1d99      	adds	r1, r3, #6
100003d4:	f004 fa32 	bl	1000483c <nec_decode_frame>
100003d8:	2800      	cmp	r0, #0
100003da:	d010      	beq.n	100003fe <main+0xaa>
100003dc:	ab02      	add	r3, sp, #8
100003de:	79da      	ldrb	r2, [r3, #7]
100003e0:	7999      	ldrb	r1, [r3, #6]
100003e2:	9801      	ldr	r0, [sp, #4]
100003e4:	f003 fe34 	bl	10004050 <__wrap_printf>
100003e8:	686b      	ldr	r3, [r5, #4]
100003ea:	421f      	tst	r7, r3
100003ec:	d0ec      	beq.n	100003c8 <main+0x74>
100003ee:	464c      	mov	r4, r9
100003f0:	20e1      	movs	r0, #225	@ 0xe1
100003f2:	3401      	adds	r4, #1
100003f4:	0080      	lsls	r0, r0, #2
100003f6:	f000 fd97 	bl	10000f28 <sleep_ms>
100003fa:	b2e4      	uxtb	r4, r4
100003fc:	e7d0      	b.n	100003a0 <main+0x4c>
100003fe:	0021      	movs	r1, r4
10000400:	9800      	ldr	r0, [sp, #0]
10000402:	f003 fe25 	bl	10004050 <__wrap_printf>
10000406:	686b      	ldr	r3, [r5, #4]
10000408:	421f      	tst	r7, r3
1000040a:	d1f0      	bne.n	100003ee <main+0x9a>
1000040c:	e7dc      	b.n	100003c8 <main+0x74>
1000040e:	480a      	ldr	r0, [pc, #40]	@ (10000438 <main+0xe4>)
10000410:	f003 fd2c 	bl	10003e6c <__wrap_puts>
10000414:	2001      	movs	r0, #1
10000416:	4240      	negs	r0, r0
10000418:	b005      	add	sp, #20
1000041a:	bcf0      	pop	{r4, r5, r6, r7}
1000041c:	46bb      	mov	fp, r7
1000041e:	46b2      	mov	sl, r6
10000420:	46a9      	mov	r9, r5
10000422:	46a0      	mov	r8, r4
10000424:	bdf0      	pop	{r4, r5, r6, r7, pc}
10000426:	46c0      	nop			@ (mov r8, r8)
10000428:	50200000 	.word	0x50200000
1000042c:	10004920 	.word	0x10004920
10000430:	10004934 	.word	0x10004934
10000434:	1000494c 	.word	0x1000494c
10000438:	10004908 	.word	0x10004908

1000043c <gpio_set_function>:
1000043c:	4a09      	ldr	r2, [pc, #36]	@ (10000464 <gpio_set_function+0x28>)
1000043e:	b510      	push	{r4, lr}
10000440:	4694      	mov	ip, r2
10000442:	2440      	movs	r4, #64	@ 0x40
10000444:	0083      	lsls	r3, r0, #2
10000446:	4463      	add	r3, ip
10000448:	681a      	ldr	r2, [r3, #0]
1000044a:	00c0      	lsls	r0, r0, #3
1000044c:	4062      	eors	r2, r4
1000044e:	3480      	adds	r4, #128	@ 0x80
10000450:	4014      	ands	r4, r2
10000452:	2280      	movs	r2, #128	@ 0x80
10000454:	0152      	lsls	r2, r2, #5
10000456:	4313      	orrs	r3, r2
10000458:	601c      	str	r4, [r3, #0]
1000045a:	4b03      	ldr	r3, [pc, #12]	@ (10000468 <gpio_set_function+0x2c>)
1000045c:	469c      	mov	ip, r3
1000045e:	4460      	add	r0, ip
10000460:	6041      	str	r1, [r0, #4]
10000462:	bd10      	pop	{r4, pc}
10000464:	4001c004 	.word	0x4001c004
10000468:	40014000 	.word	0x40014000

1000046c <gpio_set_pulls>:
1000046c:	4b07      	ldr	r3, [pc, #28]	@ (1000048c <gpio_set_pulls+0x20>)
1000046e:	0080      	lsls	r0, r0, #2
10000470:	469c      	mov	ip, r3
10000472:	4460      	add	r0, ip
10000474:	6803      	ldr	r3, [r0, #0]
10000476:	00c9      	lsls	r1, r1, #3
10000478:	0092      	lsls	r2, r2, #2
1000047a:	430a      	orrs	r2, r1
1000047c:	405a      	eors	r2, r3
1000047e:	230c      	movs	r3, #12
10000480:	401a      	ands	r2, r3
10000482:	2380      	movs	r3, #128	@ 0x80
10000484:	015b      	lsls	r3, r3, #5
10000486:	4303      	orrs	r3, r0
10000488:	601a      	str	r2, [r3, #0]
1000048a:	4770      	bx	lr
1000048c:	4001c004 	.word	0x4001c004

10000490 <running_on_fpga>:
10000490:	4b02      	ldr	r3, [pc, #8]	@ (1000049c <running_on_fpga+0xc>)
10000492:	6818      	ldr	r0, [r3, #0]
10000494:	0780      	lsls	r0, r0, #30
10000496:	0fc0      	lsrs	r0, r0, #31
10000498:	4770      	bx	lr
1000049a:	46c0      	nop			@ (mov r8, r8)
1000049c:	4006c000 	.word	0x4006c000

100004a0 <hw_claim_lock>:
100004a0:	f3ef 8010 	mrs	r0, PRIMASK
100004a4:	b672      	cpsid	i
100004a6:	4a03      	ldr	r2, [pc, #12]	@ (100004b4 <hw_claim_lock+0x14>)
100004a8:	6813      	ldr	r3, [r2, #0]
100004aa:	2b00      	cmp	r3, #0
100004ac:	d0fc      	beq.n	100004a8 <hw_claim_lock+0x8>
100004ae:	f3bf 8f5f 	dmb	sy
100004b2:	4770      	bx	lr
100004b4:	d000012c 	.word	0xd000012c

100004b8 <hw_claim_unlock>:
100004b8:	f3bf 8f5f 	dmb	sy
100004bc:	2200      	movs	r2, #0
100004be:	4b02      	ldr	r3, [pc, #8]	@ (100004c8 <hw_claim_unlock+0x10>)
100004c0:	601a      	str	r2, [r3, #0]
100004c2:	f380 8810 	msr	PRIMASK, r0
100004c6:	4770      	bx	lr
100004c8:	d000012c 	.word	0xd000012c

100004cc <hw_claim_or_assert>:
100004cc:	b570      	push	{r4, r5, r6, lr}
100004ce:	f3ef 8c10 	mrs	ip, PRIMASK
100004d2:	b672      	cpsid	i
100004d4:	4d0d      	ldr	r5, [pc, #52]	@ (1000050c <hw_claim_or_assert+0x40>)
100004d6:	682b      	ldr	r3, [r5, #0]
100004d8:	2b00      	cmp	r3, #0
100004da:	d0fc      	beq.n	100004d6 <hw_claim_or_assert+0xa>
100004dc:	f3bf 8f5f 	dmb	sy
100004e0:	2407      	movs	r4, #7
100004e2:	08cb      	lsrs	r3, r1, #3
100004e4:	18c6      	adds	r6, r0, r3
100004e6:	5cc0      	ldrb	r0, [r0, r3]
100004e8:	2301      	movs	r3, #1
100004ea:	400c      	ands	r4, r1
100004ec:	40a3      	lsls	r3, r4
100004ee:	001c      	movs	r4, r3
100004f0:	4004      	ands	r4, r0
100004f2:	4203      	tst	r3, r0
100004f4:	d107      	bne.n	10000506 <hw_claim_or_assert+0x3a>
100004f6:	4318      	orrs	r0, r3
100004f8:	7030      	strb	r0, [r6, #0]
100004fa:	f3bf 8f5f 	dmb	sy
100004fe:	602c      	str	r4, [r5, #0]
10000500:	f38c 8810 	msr	PRIMASK, ip
10000504:	bd70      	pop	{r4, r5, r6, pc}
10000506:	0010      	movs	r0, r2
10000508:	f001 fc16 	bl	10001d38 <panic>
1000050c:	d000012c 	.word	0xd000012c

10000510 <hw_claim_unused_from_range>:
10000510:	b5f8      	push	{r3, r4, r5, r6, r7, lr}
10000512:	4647      	mov	r7, r8
10000514:	46ce      	mov	lr, r9
10000516:	4688      	mov	r8, r1
10000518:	b580      	push	{r7, lr}
1000051a:	f3ef 8c10 	mrs	ip, PRIMASK
1000051e:	b672      	cpsid	i
10000520:	4d21      	ldr	r5, [pc, #132]	@ (100005a8 <hw_claim_unused_from_range+0x98>)
10000522:	682c      	ldr	r4, [r5, #0]
10000524:	2c00      	cmp	r4, #0
10000526:	d0fc      	beq.n	10000522 <hw_claim_unused_from_range+0x12>
10000528:	f3bf 8f5f 	dmb	sy
1000052c:	429a      	cmp	r2, r3
1000052e:	d82c      	bhi.n	1000058a <hw_claim_unused_from_range+0x7a>
10000530:	08d4      	lsrs	r4, r2, #3
10000532:	2707      	movs	r7, #7
10000534:	5d05      	ldrb	r5, [r0, r4]
10000536:	1906      	adds	r6, r0, r4
10000538:	2401      	movs	r4, #1
1000053a:	4017      	ands	r7, r2
1000053c:	40bc      	lsls	r4, r7
1000053e:	422c      	tst	r4, r5
10000540:	d01f      	beq.n	10000582 <hw_claim_unused_from_range+0x72>
10000542:	2107      	movs	r1, #7
10000544:	2701      	movs	r7, #1
10000546:	4689      	mov	r9, r1
10000548:	e009      	b.n	1000055e <hw_claim_unused_from_range+0x4e>
1000054a:	08d4      	lsrs	r4, r2, #3
1000054c:	5d05      	ldrb	r5, [r0, r4]
1000054e:	1906      	adds	r6, r0, r4
10000550:	464c      	mov	r4, r9
10000552:	0039      	movs	r1, r7
10000554:	4014      	ands	r4, r2
10000556:	40a1      	lsls	r1, r4
10000558:	000c      	movs	r4, r1
1000055a:	4229      	tst	r1, r5
1000055c:	d011      	beq.n	10000582 <hw_claim_unused_from_range+0x72>
1000055e:	3201      	adds	r2, #1
10000560:	4293      	cmp	r3, r2
10000562:	d2f2      	bcs.n	1000054a <hw_claim_unused_from_range+0x3a>
10000564:	2001      	movs	r0, #1
10000566:	4240      	negs	r0, r0
10000568:	f3bf 8f5f 	dmb	sy
1000056c:	2200      	movs	r2, #0
1000056e:	4b0e      	ldr	r3, [pc, #56]	@ (100005a8 <hw_claim_unused_from_range+0x98>)
10000570:	601a      	str	r2, [r3, #0]
10000572:	f38c 8810 	msr	PRIMASK, ip
10000576:	2800      	cmp	r0, #0
10000578:	db0f      	blt.n	1000059a <hw_claim_unused_from_range+0x8a>
1000057a:	bcc0      	pop	{r6, r7}
1000057c:	46b9      	mov	r9, r7
1000057e:	46b0      	mov	r8, r6
10000580:	bdf8      	pop	{r3, r4, r5, r6, r7, pc}
10000582:	4325      	orrs	r5, r4
10000584:	0010      	movs	r0, r2
10000586:	7035      	strb	r5, [r6, #0]
10000588:	e7ee      	b.n	10000568 <hw_claim_unused_from_range+0x58>
1000058a:	f3bf 8f5f 	dmb	sy
1000058e:	2300      	movs	r3, #0
10000590:	602b      	str	r3, [r5, #0]
10000592:	f38c 8810 	msr	PRIMASK, ip
10000596:	2001      	movs	r0, #1
10000598:	4240      	negs	r0, r0
1000059a:	4643      	mov	r3, r8
1000059c:	2b00      	cmp	r3, #0
1000059e:	d0ec      	beq.n	1000057a <hw_claim_unused_from_range+0x6a>
100005a0:	9808      	ldr	r0, [sp, #32]
100005a2:	f001 fbc9 	bl	10001d38 <panic>
100005a6:	46c0      	nop			@ (mov r8, r8)
100005a8:	d000012c 	.word	0xd000012c

100005ac <spin_locks_reset>:
100005ac:	2100      	movs	r1, #0
100005ae:	4b04      	ldr	r3, [pc, #16]	@ (100005c0 <spin_locks_reset+0x14>)
100005b0:	4a04      	ldr	r2, [pc, #16]	@ (100005c4 <spin_locks_reset+0x18>)
100005b2:	f3bf 8f5f 	dmb	sy
100005b6:	c302      	stmia	r3!, {r1}
100005b8:	4293      	cmp	r3, r2
100005ba:	d1fa      	bne.n	100005b2 <spin_locks_reset+0x6>
100005bc:	4770      	bx	lr
100005be:	46c0      	nop			@ (mov r8, r8)
100005c0:	d0000100 	.word	0xd0000100
100005c4:	d0000180 	.word	0xd0000180

100005c8 <next_striped_spin_lock_num>:
100005c8:	4a04      	ldr	r2, [pc, #16]	@ (100005dc <next_striped_spin_lock_num+0x14>)
100005ca:	7810      	ldrb	r0, [r2, #0]
100005cc:	1c43      	adds	r3, r0, #1
100005ce:	b2db      	uxtb	r3, r3
100005d0:	2b17      	cmp	r3, #23
100005d2:	d900      	bls.n	100005d6 <next_striped_spin_lock_num+0xe>
100005d4:	2310      	movs	r3, #16
100005d6:	7013      	strb	r3, [r2, #0]
100005d8:	4770      	bx	lr
100005da:	46c0      	nop			@ (mov r8, r8)
100005dc:	20000198 	.word	0x20000198

100005e0 <irq_set_enabled>:
100005e0:	2301      	movs	r3, #1
100005e2:	4083      	lsls	r3, r0
100005e4:	2900      	cmp	r1, #0
100005e6:	d004      	beq.n	100005f2 <irq_set_enabled+0x12>
100005e8:	4a03      	ldr	r2, [pc, #12]	@ (100005f8 <irq_set_enabled+0x18>)
100005ea:	6013      	str	r3, [r2, #0]
100005ec:	4a03      	ldr	r2, [pc, #12]	@ (100005fc <irq_set_enabled+0x1c>)
100005ee:	6013      	str	r3, [r2, #0]
100005f0:	4770      	bx	lr
100005f2:	4a03      	ldr	r2, [pc, #12]	@ (10000600 <irq_set_enabled+0x20>)
100005f4:	6013      	str	r3, [r2, #0]
100005f6:	e7fb      	b.n	100005f0 <irq_set_enabled+0x10>
100005f8:	e000e280 	.word	0xe000e280
100005fc:	e000e100 	.word	0xe000e100
10000600:	e000e180 	.word	0xe000e180

10000604 <irq_get_vtable_handler>:
10000604:	4b02      	ldr	r3, [pc, #8]	@ (10000610 <irq_get_vtable_handler+0xc>)
10000606:	3010      	adds	r0, #16
10000608:	689b      	ldr	r3, [r3, #8]
1000060a:	0080      	lsls	r0, r0, #2
1000060c:	58c0      	ldr	r0, [r0, r3]
1000060e:	4770      	bx	lr
10000610:	e000ed00 	.word	0xe000ed00

10000614 <irq_set_exclusive_handler>:
10000614:	b570      	push	{r4, r5, r6, lr}
10000616:	000d      	movs	r5, r1
10000618:	f3ef 8610 	mrs	r6, PRIMASK
1000061c:	b672      	cpsid	i
1000061e:	4a0f      	ldr	r2, [pc, #60]	@ (1000065c <irq_set_exclusive_handler+0x48>)
10000620:	6813      	ldr	r3, [r2, #0]
10000622:	2b00      	cmp	r3, #0
10000624:	d0fc      	beq.n	10000620 <irq_set_exclusive_handler+0xc>
10000626:	f3bf 8f5f 	dmb	sy
1000062a:	4b0d      	ldr	r3, [pc, #52]	@ (10000660 <irq_set_exclusive_handler+0x4c>)
1000062c:	3010      	adds	r0, #16
1000062e:	689b      	ldr	r3, [r3, #8]
10000630:	0084      	lsls	r4, r0, #2
10000632:	591b      	ldr	r3, [r3, r4]
10000634:	4a0b      	ldr	r2, [pc, #44]	@ (10000664 <irq_set_exclusive_handler+0x50>)
10000636:	4293      	cmp	r3, r2
10000638:	d003      	beq.n	10000642 <irq_set_exclusive_handler+0x2e>
1000063a:	429d      	cmp	r5, r3
1000063c:	d001      	beq.n	10000642 <irq_set_exclusive_handler+0x2e>
1000063e:	f001 fb93 	bl	10001d68 <hard_assertion_failure>
10000642:	4b07      	ldr	r3, [pc, #28]	@ (10000660 <irq_set_exclusive_handler+0x4c>)
10000644:	689b      	ldr	r3, [r3, #8]
10000646:	511d      	str	r5, [r3, r4]
10000648:	f3bf 8f5f 	dmb	sy
1000064c:	f3bf 8f5f 	dmb	sy
10000650:	2200      	movs	r2, #0
10000652:	4b02      	ldr	r3, [pc, #8]	@ (1000065c <irq_set_exclusive_handler+0x48>)
10000654:	601a      	str	r2, [r3, #0]
10000656:	f386 8810 	msr	PRIMASK, r6
1000065a:	bd70      	pop	{r4, r5, r6, pc}
1000065c:	d0000124 	.word	0xd0000124
10000660:	e000ed00 	.word	0xe000ed00
10000664:	100001cd 	.word	0x100001cd

10000668 <irq_remove_handler>:
10000668:	b5f0      	push	{r4, r5, r6, r7, lr}
1000066a:	46de      	mov	lr, fp
1000066c:	4657      	mov	r7, sl
1000066e:	464e      	mov	r6, r9
10000670:	4645      	mov	r5, r8
10000672:	b5e0      	push	{r5, r6, r7, lr}
10000674:	000c      	movs	r4, r1
10000676:	b083      	sub	sp, #12
10000678:	f3ef 8810 	mrs	r8, PRIMASK
1000067c:	b672      	cpsid	i
1000067e:	4a5d      	ldr	r2, [pc, #372]	@ (100007f4 <irq_remove_handler+0x18c>)
10000680:	6813      	ldr	r3, [r2, #0]
10000682:	2b00      	cmp	r3, #0
10000684:	d0fc      	beq.n	10000680 <irq_remove_handler+0x18>
10000686:	f3bf 8f5f 	dmb	sy
1000068a:	4b5b      	ldr	r3, [pc, #364]	@ (100007f8 <irq_remove_handler+0x190>)
1000068c:	495b      	ldr	r1, [pc, #364]	@ (100007fc <irq_remove_handler+0x194>)
1000068e:	689a      	ldr	r2, [r3, #8]
10000690:	0003      	movs	r3, r0
10000692:	3310      	adds	r3, #16
10000694:	009f      	lsls	r7, r3, #2
10000696:	59d5      	ldr	r5, [r2, r7]
10000698:	428d      	cmp	r5, r1
1000069a:	d039      	beq.n	10000710 <irq_remove_handler+0xa8>
1000069c:	42a5      	cmp	r5, r4
1000069e:	d04a      	beq.n	10000736 <irq_remove_handler+0xce>
100006a0:	4e57      	ldr	r6, [pc, #348]	@ (10000800 <irq_remove_handler+0x198>)
100006a2:	1baa      	subs	r2, r5, r6
100006a4:	2a2f      	cmp	r2, #47	@ 0x2f
100006a6:	d833      	bhi.n	10000710 <irq_remove_handler+0xa8>
100006a8:	2201      	movs	r2, #1
100006aa:	4692      	mov	sl, r2
100006ac:	4082      	lsls	r2, r0
100006ae:	4691      	mov	r9, r2
100006b0:	4648      	mov	r0, r9
100006b2:	4a54      	ldr	r2, [pc, #336]	@ (10000804 <irq_remove_handler+0x19c>)
100006b4:	6812      	ldr	r2, [r2, #0]
100006b6:	4010      	ands	r0, r2
100006b8:	9001      	str	r0, [sp, #4]
100006ba:	4648      	mov	r0, r9
100006bc:	4a52      	ldr	r2, [pc, #328]	@ (10000808 <irq_remove_handler+0x1a0>)
100006be:	6010      	str	r0, [r2, #0]
100006c0:	f3bf 8f5f 	dmb	sy
100006c4:	f3ef 8205 	mrs	r2, IPSR
100006c8:	4693      	mov	fp, r2
100006ca:	2a00      	cmp	r2, #0
100006cc:	d035      	beq.n	1000073a <irq_remove_handler+0xd2>
100006ce:	4293      	cmp	r3, r2
100006d0:	d001      	beq.n	100006d6 <irq_remove_handler+0x6e>
100006d2:	f001 fb49 	bl	10001d68 <hard_assertion_failure>
100006d6:	002a      	movs	r2, r5
100006d8:	4653      	mov	r3, sl
100006da:	439a      	bics	r2, r3
100006dc:	6890      	ldr	r0, [r2, #8]
100006de:	4284      	cmp	r4, r0
100006e0:	d108      	bne.n	100006f4 <irq_remove_handler+0x8c>
100006e2:	e075      	b.n	100007d0 <irq_remove_handler+0x168>
100006e4:	004b      	lsls	r3, r1, #1
100006e6:	185b      	adds	r3, r3, r1
100006e8:	009b      	lsls	r3, r3, #2
100006ea:	18f3      	adds	r3, r6, r3
100006ec:	6898      	ldr	r0, [r3, #8]
100006ee:	42a0      	cmp	r0, r4
100006f0:	d034      	beq.n	1000075c <irq_remove_handler+0xf4>
100006f2:	001a      	movs	r2, r3
100006f4:	2106      	movs	r1, #6
100006f6:	5651      	ldrsb	r1, [r2, r1]
100006f8:	2900      	cmp	r1, #0
100006fa:	daf3      	bge.n	100006e4 <irq_remove_handler+0x7c>
100006fc:	4284      	cmp	r4, r0
100006fe:	d053      	beq.n	100007a8 <irq_remove_handler+0x140>
10000700:	9b01      	ldr	r3, [sp, #4]
10000702:	2b00      	cmp	r3, #0
10000704:	d026      	beq.n	10000754 <irq_remove_handler+0xec>
10000706:	464a      	mov	r2, r9
10000708:	4b40      	ldr	r3, [pc, #256]	@ (1000080c <irq_remove_handler+0x1a4>)
1000070a:	601a      	str	r2, [r3, #0]
1000070c:	4b3d      	ldr	r3, [pc, #244]	@ (10000804 <irq_remove_handler+0x19c>)
1000070e:	601a      	str	r2, [r3, #0]
10000710:	4b39      	ldr	r3, [pc, #228]	@ (100007f8 <irq_remove_handler+0x190>)
10000712:	689b      	ldr	r3, [r3, #8]
10000714:	51dd      	str	r5, [r3, r7]
10000716:	f3bf 8f5f 	dmb	sy
1000071a:	f3bf 8f5f 	dmb	sy
1000071e:	2200      	movs	r2, #0
10000720:	4b34      	ldr	r3, [pc, #208]	@ (100007f4 <irq_remove_handler+0x18c>)
10000722:	601a      	str	r2, [r3, #0]
10000724:	f388 8810 	msr	PRIMASK, r8
10000728:	b003      	add	sp, #12
1000072a:	bcf0      	pop	{r4, r5, r6, r7}
1000072c:	46bb      	mov	fp, r7
1000072e:	46b2      	mov	sl, r6
10000730:	46a9      	mov	r9, r5
10000732:	46a0      	mov	r8, r4
10000734:	bdf0      	pop	{r4, r5, r6, r7, pc}
10000736:	000d      	movs	r5, r1
10000738:	e7ea      	b.n	10000710 <irq_remove_handler+0xa8>
1000073a:	002a      	movs	r2, r5
1000073c:	4653      	mov	r3, sl
1000073e:	439a      	bics	r2, r3
10000740:	6890      	ldr	r0, [r2, #8]
10000742:	4284      	cmp	r4, r0
10000744:	d1d6      	bne.n	100006f4 <irq_remove_handler+0x8c>
10000746:	2006      	movs	r0, #6
10000748:	5610      	ldrsb	r0, [r2, r0]
1000074a:	0013      	movs	r3, r2
1000074c:	2800      	cmp	r0, #0
1000074e:	da09      	bge.n	10000764 <irq_remove_handler+0xfc>
10000750:	000d      	movs	r5, r1
10000752:	e031      	b.n	100007b8 <irq_remove_handler+0x150>
10000754:	464a      	mov	r2, r9
10000756:	4b2c      	ldr	r3, [pc, #176]	@ (10000808 <irq_remove_handler+0x1a0>)
10000758:	601a      	str	r2, [r3, #0]
1000075a:	e7d9      	b.n	10000710 <irq_remove_handler+0xa8>
1000075c:	2006      	movs	r0, #6
1000075e:	5618      	ldrsb	r0, [r3, r0]
10000760:	2800      	cmp	r0, #0
10000762:	db22      	blt.n	100007aa <irq_remove_handler+0x142>
10000764:	0042      	lsls	r2, r0, #1
10000766:	1811      	adds	r1, r2, r0
10000768:	0089      	lsls	r1, r1, #2
1000076a:	1874      	adds	r4, r6, r1
1000076c:	468a      	mov	sl, r1
1000076e:	68a1      	ldr	r1, [r4, #8]
10000770:	6099      	str	r1, [r3, #8]
10000772:	79e1      	ldrb	r1, [r4, #7]
10000774:	71d9      	strb	r1, [r3, #7]
10000776:	2106      	movs	r1, #6
10000778:	5661      	ldrsb	r1, [r4, r1]
1000077a:	7199      	strb	r1, [r3, #6]
1000077c:	2900      	cmp	r1, #0
1000077e:	db25      	blt.n	100007cc <irq_remove_handler+0x164>
10000780:	88a4      	ldrh	r4, [r4, #4]
10000782:	1af1      	subs	r1, r6, r3
10000784:	0564      	lsls	r4, r4, #21
10000786:	1524      	asrs	r4, r4, #20
10000788:	4454      	add	r4, sl
1000078a:	1909      	adds	r1, r1, r4
1000078c:	24e0      	movs	r4, #224	@ 0xe0
1000078e:	0509      	lsls	r1, r1, #20
10000790:	0d49      	lsrs	r1, r1, #21
10000792:	0224      	lsls	r4, r4, #8
10000794:	4321      	orrs	r1, r4
10000796:	8099      	strh	r1, [r3, #4]
10000798:	1813      	adds	r3, r2, r0
1000079a:	4a1d      	ldr	r2, [pc, #116]	@ (10000810 <irq_remove_handler+0x1a8>)
1000079c:	009b      	lsls	r3, r3, #2
1000079e:	7811      	ldrb	r1, [r2, #0]
100007a0:	18f3      	adds	r3, r6, r3
100007a2:	7199      	strb	r1, [r3, #6]
100007a4:	7010      	strb	r0, [r2, #0]
100007a6:	e7ab      	b.n	10000700 <irq_remove_handler+0x98>
100007a8:	0013      	movs	r3, r2
100007aa:	4659      	mov	r1, fp
100007ac:	2900      	cmp	r1, #0
100007ae:	d114      	bne.n	100007da <irq_remove_handler+0x172>
100007b0:	31ff      	adds	r1, #255	@ 0xff
100007b2:	7191      	strb	r1, [r2, #6]
100007b4:	4917      	ldr	r1, [pc, #92]	@ (10000814 <irq_remove_handler+0x1ac>)
100007b6:	8091      	strh	r1, [r2, #4]
100007b8:	4915      	ldr	r1, [pc, #84]	@ (10000810 <irq_remove_handler+0x1a8>)
100007ba:	780a      	ldrb	r2, [r1, #0]
100007bc:	719a      	strb	r2, [r3, #6]
100007be:	4a16      	ldr	r2, [pc, #88]	@ (10000818 <irq_remove_handler+0x1b0>)
100007c0:	1b9b      	subs	r3, r3, r6
100007c2:	415b      	adcs	r3, r3
100007c4:	435a      	muls	r2, r3
100007c6:	0d12      	lsrs	r2, r2, #20
100007c8:	700a      	strb	r2, [r1, #0]
100007ca:	e799      	b.n	10000700 <irq_remove_handler+0x98>
100007cc:	4913      	ldr	r1, [pc, #76]	@ (1000081c <irq_remove_handler+0x1b4>)
100007ce:	e7e2      	b.n	10000796 <irq_remove_handler+0x12e>
100007d0:	2006      	movs	r0, #6
100007d2:	5610      	ldrsb	r0, [r2, r0]
100007d4:	0013      	movs	r3, r2
100007d6:	2800      	cmp	r0, #0
100007d8:	dac4      	bge.n	10000764 <irq_remove_handler+0xfc>
100007da:	4a11      	ldr	r2, [pc, #68]	@ (10000820 <irq_remove_handler+0x1b8>)
100007dc:	4911      	ldr	r1, [pc, #68]	@ (10000824 <irq_remove_handler+0x1bc>)
100007de:	1ad2      	subs	r2, r2, r3
100007e0:	3a08      	subs	r2, #8
100007e2:	0250      	lsls	r0, r2, #9
100007e4:	0d40      	lsrs	r0, r0, #21
100007e6:	4301      	orrs	r1, r0
100007e8:	8099      	strh	r1, [r3, #4]
100007ea:	490f      	ldr	r1, [pc, #60]	@ (10000828 <irq_remove_handler+0x1c0>)
100007ec:	0852      	lsrs	r2, r2, #1
100007ee:	430a      	orrs	r2, r1
100007f0:	80da      	strh	r2, [r3, #6]
100007f2:	e785      	b.n	10000700 <irq_remove_handler+0x98>
100007f4:	d0000124 	.word	0xd0000124
100007f8:	e000ed00 	.word	0xe000ed00
100007fc:	100001cd 	.word	0x100001cd
10000800:	2000019c 	.word	0x2000019c
10000804:	e000e100 	.word	0xe000e100
10000808:	e000e180 	.word	0xe000e180
1000080c:	e000e280 	.word	0xe000e280
10000810:	2000064a 	.word	0x2000064a
10000814:	ffffbd01 	.word	0xffffbd01
10000818:	0000aaaa 	.word	0x0000aaaa
1000081c:	0000bd01 	.word	0x0000bd01
10000820:	200001d6 	.word	0x200001d6
10000824:	fffff000 	.word	0xfffff000
10000828:	fffff800 	.word	0xfffff800

1000082c <irq_add_tail_to_free_list>:
1000082c:	b570      	push	{r4, r5, r6, lr}
1000082e:	f3ef 8105 	mrs	r1, IPSR
10000832:	2401      	movs	r4, #1
10000834:	4304      	orrs	r4, r0
10000836:	f3ef 8c10 	mrs	ip, PRIMASK
1000083a:	b672      	cpsid	i
1000083c:	4a21      	ldr	r2, [pc, #132]	@ (100008c4 <irq_add_tail_to_free_list+0x98>)
1000083e:	6813      	ldr	r3, [r2, #0]
10000840:	2b00      	cmp	r3, #0
10000842:	d0fc      	beq.n	1000083e <irq_add_tail_to_free_list+0x12>
10000844:	f3bf 8f5f 	dmb	sy
10000848:	4b1f      	ldr	r3, [pc, #124]	@ (100008c8 <irq_add_tail_to_free_list+0x9c>)
1000084a:	0005      	movs	r5, r0
1000084c:	4a1f      	ldr	r2, [pc, #124]	@ (100008cc <irq_add_tail_to_free_list+0xa0>)
1000084e:	1aed      	subs	r5, r5, r3
10000850:	416d      	adcs	r5, r5
10000852:	436a      	muls	r2, r5
10000854:	0d12      	lsrs	r2, r2, #20
10000856:	4d1e      	ldr	r5, [pc, #120]	@ (100008d0 <irq_add_tail_to_free_list+0xa4>)
10000858:	0089      	lsls	r1, r1, #2
1000085a:	68ae      	ldr	r6, [r5, #8]
1000085c:	b252      	sxtb	r2, r2
1000085e:	5876      	ldr	r6, [r6, r1]
10000860:	42a6      	cmp	r6, r4
10000862:	d01c      	beq.n	1000089e <irq_add_tail_to_free_list+0x72>
10000864:	2106      	movs	r1, #6
10000866:	5659      	ldrsb	r1, [r3, r1]
10000868:	4291      	cmp	r1, r2
1000086a:	d01c      	beq.n	100008a6 <irq_add_tail_to_free_list+0x7a>
1000086c:	2112      	movs	r1, #18
1000086e:	5659      	ldrsb	r1, [r3, r1]
10000870:	4291      	cmp	r1, r2
10000872:	d022      	beq.n	100008ba <irq_add_tail_to_free_list+0x8e>
10000874:	211e      	movs	r1, #30
10000876:	5659      	ldrsb	r1, [r3, r1]
10000878:	4291      	cmp	r1, r2
1000087a:	d020      	beq.n	100008be <irq_add_tail_to_free_list+0x92>
1000087c:	212a      	movs	r1, #42	@ 0x2a
1000087e:	5659      	ldrsb	r1, [r3, r1]
10000880:	2403      	movs	r4, #3
10000882:	4291      	cmp	r1, r2
10000884:	d010      	beq.n	100008a8 <irq_add_tail_to_free_list+0x7c>
10000886:	4b13      	ldr	r3, [pc, #76]	@ (100008d4 <irq_add_tail_to_free_list+0xa8>)
10000888:	7819      	ldrb	r1, [r3, #0]
1000088a:	701a      	strb	r2, [r3, #0]
1000088c:	7181      	strb	r1, [r0, #6]
1000088e:	f3bf 8f5f 	dmb	sy
10000892:	2200      	movs	r2, #0
10000894:	4b0b      	ldr	r3, [pc, #44]	@ (100008c4 <irq_add_tail_to_free_list+0x98>)
10000896:	601a      	str	r2, [r3, #0]
10000898:	f38c 8810 	msr	PRIMASK, ip
1000089c:	bd70      	pop	{r4, r5, r6, pc}
1000089e:	68ab      	ldr	r3, [r5, #8]
100008a0:	4c0d      	ldr	r4, [pc, #52]	@ (100008d8 <irq_add_tail_to_free_list+0xac>)
100008a2:	505c      	str	r4, [r3, r1]
100008a4:	e7ef      	b.n	10000886 <irq_add_tail_to_free_list+0x5a>
100008a6:	2400      	movs	r4, #0
100008a8:	0061      	lsls	r1, r4, #1
100008aa:	1909      	adds	r1, r1, r4
100008ac:	0089      	lsls	r1, r1, #2
100008ae:	185b      	adds	r3, r3, r1
100008b0:	21ff      	movs	r1, #255	@ 0xff
100008b2:	7199      	strb	r1, [r3, #6]
100008b4:	4909      	ldr	r1, [pc, #36]	@ (100008dc <irq_add_tail_to_free_list+0xb0>)
100008b6:	8099      	strh	r1, [r3, #4]
100008b8:	e7e5      	b.n	10000886 <irq_add_tail_to_free_list+0x5a>
100008ba:	2401      	movs	r4, #1
100008bc:	e7f4      	b.n	100008a8 <irq_add_tail_to_free_list+0x7c>
100008be:	2402      	movs	r4, #2
100008c0:	e7f2      	b.n	100008a8 <irq_add_tail_to_free_list+0x7c>
100008c2:	46c0      	nop			@ (mov r8, r8)
100008c4:	d0000124 	.word	0xd0000124
100008c8:	2000019c 	.word	0x2000019c
100008cc:	0000aaaa 	.word	0x0000aaaa
100008d0:	e000ed00 	.word	0xe000ed00
100008d4:	2000064a 	.word	0x2000064a
100008d8:	100001cd 	.word	0x100001cd
100008dc:	ffffbd01 	.word	0xffffbd01

100008e0 <irq_init_priorities>:
100008e0:	4b05      	ldr	r3, [pc, #20]	@ (100008f8 <irq_init_priorities+0x18>)
100008e2:	4a06      	ldr	r2, [pc, #24]	@ (100008fc <irq_init_priorities+0x1c>)
100008e4:	6013      	str	r3, [r2, #0]
100008e6:	4a06      	ldr	r2, [pc, #24]	@ (10000900 <irq_init_priorities+0x20>)
100008e8:	6013      	str	r3, [r2, #0]
100008ea:	6053      	str	r3, [r2, #4]
100008ec:	6093      	str	r3, [r2, #8]
100008ee:	60d3      	str	r3, [r2, #12]
100008f0:	6113      	str	r3, [r2, #16]
100008f2:	6153      	str	r3, [r2, #20]
100008f4:	6193      	str	r3, [r2, #24]
100008f6:	4770      	bx	lr
100008f8:	80808080 	.word	0x80808080
100008fc:	e000e400 	.word	0xe000e400
10000900:	e000e404 	.word	0xe000e404

10000904 <lock_init>:
10000904:	4b02      	ldr	r3, [pc, #8]	@ (10000910 <lock_init+0xc>)
10000906:	469c      	mov	ip, r3
10000908:	4461      	add	r1, ip
1000090a:	0089      	lsls	r1, r1, #2
1000090c:	6001      	str	r1, [r0, #0]
1000090e:	4770      	bx	lr
10000910:	34000040 	.word	0x34000040

10000914 <mutex_init>:
10000914:	b510      	push	{r4, lr}
10000916:	0004      	movs	r4, r0
10000918:	f7ff fe56 	bl	100005c8 <next_striped_spin_lock_num>
1000091c:	0001      	movs	r1, r0
1000091e:	0020      	movs	r0, r4
10000920:	f7ff fff0 	bl	10000904 <lock_init>
10000924:	23ff      	movs	r3, #255	@ 0xff
10000926:	7123      	strb	r3, [r4, #4]
10000928:	f3bf 8f5f 	dmb	sy
1000092c:	bd10      	pop	{r4, pc}
1000092e:	46c0      	nop			@ (mov r8, r8)

10000930 <recursive_mutex_init>:
10000930:	b510      	push	{r4, lr}
10000932:	0004      	movs	r4, r0
10000934:	f7ff fe48 	bl	100005c8 <next_striped_spin_lock_num>
10000938:	0001      	movs	r1, r0
1000093a:	0020      	movs	r0, r4
1000093c:	f7ff ffe2 	bl	10000904 <lock_init>
10000940:	23ff      	movs	r3, #255	@ 0xff
10000942:	80a3      	strh	r3, [r4, #4]
10000944:	f3bf 8f5f 	dmb	sy
10000948:	bd10      	pop	{r4, pc}
1000094a:	46c0      	nop			@ (mov r8, r8)

1000094c <timer_pool_entry_comparator>:
1000094c:	6883      	ldr	r3, [r0, #8]
1000094e:	480b      	ldr	r0, [pc, #44]	@ (1000097c <timer_pool_entry_comparator+0x30>)
10000950:	b510      	push	{r4, lr}
10000952:	4684      	mov	ip, r0
10000954:	4461      	add	r1, ip
10000956:	4462      	add	r2, ip
10000958:	0112      	lsls	r2, r2, #4
1000095a:	0109      	lsls	r1, r1, #4
1000095c:	1859      	adds	r1, r3, r1
1000095e:	189b      	adds	r3, r3, r2
10000960:	685c      	ldr	r4, [r3, #4]
10000962:	684a      	ldr	r2, [r1, #4]
10000964:	2001      	movs	r0, #1
10000966:	4294      	cmp	r4, r2
10000968:	d801      	bhi.n	1000096e <timer_pool_entry_comparator+0x22>
1000096a:	d002      	beq.n	10000972 <timer_pool_entry_comparator+0x26>
1000096c:	2000      	movs	r0, #0
1000096e:	b2c0      	uxtb	r0, r0
10000970:	bd10      	pop	{r4, pc}
10000972:	681a      	ldr	r2, [r3, #0]
10000974:	680b      	ldr	r3, [r1, #0]
10000976:	429a      	cmp	r2, r3
10000978:	d8f9      	bhi.n	1000096e <timer_pool_entry_comparator+0x22>
1000097a:	e7f7      	b.n	1000096c <timer_pool_entry_comparator+0x20>
1000097c:	0fffffff 	.word	0x0fffffff

10000980 <sleep_until_callback>:
10000980:	4b0a      	ldr	r3, [pc, #40]	@ (100009ac <sleep_until_callback+0x2c>)
10000982:	6819      	ldr	r1, [r3, #0]
10000984:	f3ef 8010 	mrs	r0, PRIMASK
10000988:	b672      	cpsid	i
1000098a:	680a      	ldr	r2, [r1, #0]
1000098c:	2a00      	cmp	r2, #0
1000098e:	d0fc      	beq.n	1000098a <sleep_until_callback+0xa>
10000990:	f3bf 8f5f 	dmb	sy
10000994:	681b      	ldr	r3, [r3, #0]
10000996:	f3bf 8f5f 	dmb	sy
1000099a:	2200      	movs	r2, #0
1000099c:	601a      	str	r2, [r3, #0]
1000099e:	f380 8810 	msr	PRIMASK, r0
100009a2:	bf40      	sev
100009a4:	2000      	movs	r0, #0
100009a6:	2100      	movs	r1, #0
100009a8:	4770      	bx	lr
100009aa:	46c0      	nop			@ (mov r8, r8)
100009ac:	2000062c 	.word	0x2000062c

100009b0 <add_alarm_under_lock.isra.0>:
100009b0:	b5f8      	push	{r3, r4, r5, r6, r7, lr}
100009b2:	4657      	mov	r7, sl
100009b4:	4645      	mov	r5, r8
100009b6:	464e      	mov	r6, r9
100009b8:	46de      	mov	lr, fp
100009ba:	b5e0      	push	{r5, r6, r7, lr}
100009bc:	4698      	mov	r8, r3
100009be:	ab0c      	add	r3, sp, #48	@ 0x30
100009c0:	781c      	ldrb	r4, [r3, #0]
100009c2:	ab0d      	add	r3, sp, #52	@ 0x34
100009c4:	781b      	ldrb	r3, [r3, #0]
100009c6:	0007      	movs	r7, r0
100009c8:	4691      	mov	r9, r2
100009ca:	469a      	mov	sl, r3
100009cc:	6805      	ldr	r5, [r0, #0]
100009ce:	2c00      	cmp	r4, #0
100009d0:	d15e      	bne.n	10000a90 <add_alarm_under_lock.isra.0+0xe0>
100009d2:	7bac      	ldrb	r4, [r5, #14]
100009d4:	2c00      	cmp	r4, #0
100009d6:	d03b      	beq.n	10000a50 <add_alarm_under_lock.isra.0+0xa0>
100009d8:	0066      	lsls	r6, r4, #1
100009da:	6829      	ldr	r1, [r5, #0]
100009dc:	1936      	adds	r6, r6, r4
100009de:	3e03      	subs	r6, #3
100009e0:	1989      	adds	r1, r1, r6
100009e2:	784b      	ldrb	r3, [r1, #1]
100009e4:	73ab      	strb	r3, [r5, #14]
100009e6:	2b00      	cmp	r3, #0
100009e8:	d100      	bne.n	100009ec <add_alarm_under_lock.isra.0+0x3c>
100009ea:	73eb      	strb	r3, [r5, #15]
100009ec:	2300      	movs	r3, #0
100009ee:	708b      	strb	r3, [r1, #2]
100009f0:	704b      	strb	r3, [r1, #1]
100009f2:	700b      	strb	r3, [r1, #0]
100009f4:	4b2d      	ldr	r3, [pc, #180]	@ (10000aac <add_alarm_under_lock.isra.0+0xfc>)
100009f6:	18e2      	adds	r2, r4, r3
100009f8:	68bb      	ldr	r3, [r7, #8]
100009fa:	0112      	lsls	r2, r2, #4
100009fc:	189b      	adds	r3, r3, r2
100009fe:	464a      	mov	r2, r9
10000a00:	601a      	str	r2, [r3, #0]
10000a02:	4642      	mov	r2, r8
10000a04:	605a      	str	r2, [r3, #4]
10000a06:	9a0a      	ldr	r2, [sp, #40]	@ 0x28
10000a08:	609a      	str	r2, [r3, #8]
10000a0a:	9a0b      	ldr	r2, [sp, #44]	@ 0x2c
10000a0c:	60da      	str	r2, [r3, #12]
10000a0e:	2300      	movs	r3, #0
10000a10:	708b      	strb	r3, [r1, #2]
10000a12:	704b      	strb	r3, [r1, #1]
10000a14:	700b      	strb	r3, [r1, #0]
10000a16:	7b6b      	ldrb	r3, [r5, #13]
10000a18:	469b      	mov	fp, r3
10000a1a:	2b00      	cmp	r3, #0
10000a1c:	d02b      	beq.n	10000a76 <add_alarm_under_lock.isra.0+0xc6>
10000a1e:	0022      	movs	r2, r4
10000a20:	4659      	mov	r1, fp
10000a22:	68a8      	ldr	r0, [r5, #8]
10000a24:	686b      	ldr	r3, [r5, #4]
10000a26:	4798      	blx	r3
10000a28:	682a      	ldr	r2, [r5, #0]
10000a2a:	2800      	cmp	r0, #0
10000a2c:	d016      	beq.n	10000a5c <add_alarm_under_lock.isra.0+0xac>
10000a2e:	465b      	mov	r3, fp
10000a30:	4658      	mov	r0, fp
10000a32:	005b      	lsls	r3, r3, #1
10000a34:	445b      	add	r3, fp
10000a36:	1996      	adds	r6, r2, r6
10000a38:	3b03      	subs	r3, #3
10000a3a:	70b0      	strb	r0, [r6, #2]
10000a3c:	18d1      	adds	r1, r2, r3
10000a3e:	5cd3      	ldrb	r3, [r2, r3]
10000a40:	2b00      	cmp	r3, #0
10000a42:	d000      	beq.n	10000a46 <add_alarm_under_lock.isra.0+0x96>
10000a44:	7073      	strb	r3, [r6, #1]
10000a46:	465b      	mov	r3, fp
10000a48:	700c      	strb	r4, [r1, #0]
10000a4a:	736b      	strb	r3, [r5, #13]
10000a4c:	455c      	cmp	r4, fp
10000a4e:	d013      	beq.n	10000a78 <add_alarm_under_lock.isra.0+0xc8>
10000a50:	bcf0      	pop	{r4, r5, r6, r7}
10000a52:	46bb      	mov	fp, r7
10000a54:	46b2      	mov	sl, r6
10000a56:	46a9      	mov	r9, r5
10000a58:	46a0      	mov	r8, r4
10000a5a:	bdf8      	pop	{r3, r4, r5, r6, r7, pc}
10000a5c:	465b      	mov	r3, fp
10000a5e:	005b      	lsls	r3, r3, #1
10000a60:	445b      	add	r3, fp
10000a62:	3b03      	subs	r3, #3
10000a64:	18d3      	adds	r3, r2, r3
10000a66:	709c      	strb	r4, [r3, #2]
10000a68:	1991      	adds	r1, r2, r6
10000a6a:	5d92      	ldrb	r2, [r2, r6]
10000a6c:	2a00      	cmp	r2, #0
10000a6e:	d000      	beq.n	10000a72 <add_alarm_under_lock.isra.0+0xc2>
10000a70:	705a      	strb	r2, [r3, #1]
10000a72:	465b      	mov	r3, fp
10000a74:	700b      	strb	r3, [r1, #0]
10000a76:	736c      	strb	r4, [r5, #13]
10000a78:	464a      	mov	r2, r9
10000a7a:	4643      	mov	r3, r8
10000a7c:	7d38      	ldrb	r0, [r7, #20]
10000a7e:	f000 fbe3 	bl	10001248 <hardware_alarm_set_target>
10000a82:	1e05      	subs	r5, r0, #0
10000a84:	d10a      	bne.n	10000a9c <add_alarm_under_lock.isra.0+0xec>
10000a86:	9b0e      	ldr	r3, [sp, #56]	@ 0x38
10000a88:	2b00      	cmp	r3, #0
10000a8a:	d0e1      	beq.n	10000a50 <add_alarm_under_lock.isra.0+0xa0>
10000a8c:	701d      	strb	r5, [r3, #0]
10000a8e:	e7df      	b.n	10000a50 <add_alarm_under_lock.isra.0+0xa0>
10000a90:	0066      	lsls	r6, r4, #1
10000a92:	6829      	ldr	r1, [r5, #0]
10000a94:	1936      	adds	r6, r6, r4
10000a96:	3e03      	subs	r6, #3
10000a98:	1989      	adds	r1, r1, r6
10000a9a:	e7ab      	b.n	100009f4 <add_alarm_under_lock.isra.0+0x44>
10000a9c:	4653      	mov	r3, sl
10000a9e:	2b00      	cmp	r3, #0
10000aa0:	d1f1      	bne.n	10000a86 <add_alarm_under_lock.isra.0+0xd6>
10000aa2:	0021      	movs	r1, r4
10000aa4:	6838      	ldr	r0, [r7, #0]
10000aa6:	f000 fdf3 	bl	10001690 <ph_remove_and_free_node>
10000aaa:	e7ec      	b.n	10000a86 <add_alarm_under_lock.isra.0+0xd6>
10000aac:	0fffffff 	.word	0x0fffffff

10000ab0 <alarm_pool_alarm_callback>:
10000ab0:	b5f0      	push	{r4, r5, r6, r7, lr}
10000ab2:	46de      	mov	lr, fp
10000ab4:	4657      	mov	r7, sl
10000ab6:	464e      	mov	r6, r9
10000ab8:	4645      	mov	r5, r8
10000aba:	2300      	movs	r3, #0
10000abc:	b5e0      	push	{r5, r6, r7, lr}
10000abe:	b08b      	sub	sp, #44	@ 0x2c
10000ac0:	9308      	str	r3, [sp, #32]
10000ac2:	4b68      	ldr	r3, [pc, #416]	@ (10000c64 <alarm_pool_alarm_callback+0x1b4>)
10000ac4:	0082      	lsls	r2, r0, #2
10000ac6:	58d4      	ldr	r4, [r2, r3]
10000ac8:	2300      	movs	r3, #0
10000aca:	469b      	mov	fp, r3
10000acc:	9009      	str	r0, [sp, #36]	@ 0x24
10000ace:	f000 fb27 	bl	10001120 <time_us_64>
10000ad2:	0002      	movs	r2, r0
10000ad4:	000b      	movs	r3, r1
10000ad6:	6860      	ldr	r0, [r4, #4]
10000ad8:	f3ef 8a10 	mrs	sl, PRIMASK
10000adc:	b672      	cpsid	i
10000ade:	4656      	mov	r6, sl
10000ae0:	6801      	ldr	r1, [r0, #0]
10000ae2:	2900      	cmp	r1, #0
10000ae4:	d0fc      	beq.n	10000ae0 <alarm_pool_alarm_callback+0x30>
10000ae6:	46b2      	mov	sl, r6
10000ae8:	f3bf 8f5f 	dmb	sy
10000aec:	6821      	ldr	r1, [r4, #0]
10000aee:	7b4f      	ldrb	r7, [r1, #13]
10000af0:	468c      	mov	ip, r1
10000af2:	2f00      	cmp	r7, #0
10000af4:	d02e      	beq.n	10000b54 <alarm_pool_alarm_callback+0xa4>
10000af6:	68a5      	ldr	r5, [r4, #8]
10000af8:	495b      	ldr	r1, [pc, #364]	@ (10000c68 <alarm_pool_alarm_callback+0x1b8>)
10000afa:	46a9      	mov	r9, r5
10000afc:	1879      	adds	r1, r7, r1
10000afe:	0109      	lsls	r1, r1, #4
10000b00:	4489      	add	r9, r1
10000b02:	4649      	mov	r1, r9
10000b04:	6808      	ldr	r0, [r1, #0]
10000b06:	6849      	ldr	r1, [r1, #4]
10000b08:	0005      	movs	r5, r0
10000b0a:	000e      	movs	r6, r1
10000b0c:	1aad      	subs	r5, r5, r2
10000b0e:	419e      	sbcs	r6, r3
10000b10:	2e00      	cmp	r6, #0
10000b12:	dd5f      	ble.n	10000bd4 <alarm_pool_alarm_callback+0x124>
10000b14:	0002      	movs	r2, r0
10000b16:	000b      	movs	r3, r1
10000b18:	9809      	ldr	r0, [sp, #36]	@ 0x24
10000b1a:	f000 fb95 	bl	10001248 <hardware_alarm_set_target>
10000b1e:	2300      	movs	r3, #0
10000b20:	2200      	movs	r2, #0
10000b22:	4699      	mov	r9, r3
10000b24:	2300      	movs	r3, #0
10000b26:	9206      	str	r2, [sp, #24]
10000b28:	9307      	str	r3, [sp, #28]
10000b2a:	2300      	movs	r3, #0
10000b2c:	4698      	mov	r8, r3
10000b2e:	6863      	ldr	r3, [r4, #4]
10000b30:	f3bf 8f5f 	dmb	sy
10000b34:	465a      	mov	r2, fp
10000b36:	601a      	str	r2, [r3, #0]
10000b38:	f38a 8810 	msr	PRIMASK, sl
10000b3c:	4643      	mov	r3, r8
10000b3e:	2b00      	cmp	r3, #0
10000b40:	d112      	bne.n	10000b68 <alarm_pool_alarm_callback+0xb8>
10000b42:	2800      	cmp	r0, #0
10000b44:	d1c3      	bne.n	10000ace <alarm_pool_alarm_callback+0x1e>
10000b46:	b00b      	add	sp, #44	@ 0x2c
10000b48:	bcf0      	pop	{r4, r5, r6, r7}
10000b4a:	46bb      	mov	fp, r7
10000b4c:	46b2      	mov	sl, r6
10000b4e:	46a9      	mov	r9, r5
10000b50:	46a0      	mov	r8, r4
10000b52:	bdf0      	pop	{r4, r5, r6, r7, pc}
10000b54:	2300      	movs	r3, #0
10000b56:	2200      	movs	r2, #0
10000b58:	4699      	mov	r9, r3
10000b5a:	2300      	movs	r3, #0
10000b5c:	9206      	str	r2, [sp, #24]
10000b5e:	9307      	str	r3, [sp, #28]
10000b60:	2300      	movs	r3, #0
10000b62:	2000      	movs	r0, #0
10000b64:	4698      	mov	r8, r3
10000b66:	e7e2      	b.n	10000b2e <alarm_pool_alarm_callback+0x7e>
10000b68:	9b08      	ldr	r3, [sp, #32]
10000b6a:	4649      	mov	r1, r9
10000b6c:	0218      	lsls	r0, r3, #8
10000b6e:	4338      	orrs	r0, r7
10000b70:	47c0      	blx	r8
10000b72:	6862      	ldr	r2, [r4, #4]
10000b74:	0005      	movs	r5, r0
10000b76:	000e      	movs	r6, r1
10000b78:	f3ef 8a10 	mrs	sl, PRIMASK
10000b7c:	b672      	cpsid	i
10000b7e:	6813      	ldr	r3, [r2, #0]
10000b80:	2b00      	cmp	r3, #0
10000b82:	d0fc      	beq.n	10000b7e <alarm_pool_alarm_callback+0xce>
10000b84:	f3bf 8f5f 	dmb	sy
10000b88:	2e00      	cmp	r6, #0
10000b8a:	db41      	blt.n	10000c10 <alarm_pool_alarm_callback+0x160>
10000b8c:	002b      	movs	r3, r5
10000b8e:	4333      	orrs	r3, r6
10000b90:	d002      	beq.n	10000b98 <alarm_pool_alarm_callback+0xe8>
10000b92:	6923      	ldr	r3, [r4, #16]
10000b94:	2b00      	cmp	r3, #0
10000b96:	d156      	bne.n	10000c46 <alarm_pool_alarm_callback+0x196>
10000b98:	6823      	ldr	r3, [r4, #0]
10000b9a:	7bd9      	ldrb	r1, [r3, #15]
10000b9c:	2900      	cmp	r1, #0
10000b9e:	d005      	beq.n	10000bac <alarm_pool_alarm_callback+0xfc>
10000ba0:	681a      	ldr	r2, [r3, #0]
10000ba2:	0048      	lsls	r0, r1, #1
10000ba4:	1841      	adds	r1, r0, r1
10000ba6:	1852      	adds	r2, r2, r1
10000ba8:	3a03      	subs	r2, #3
10000baa:	7057      	strb	r7, [r2, #1]
10000bac:	7b9a      	ldrb	r2, [r3, #14]
10000bae:	2a00      	cmp	r2, #0
10000bb0:	d100      	bne.n	10000bb4 <alarm_pool_alarm_callback+0x104>
10000bb2:	739f      	strb	r7, [r3, #14]
10000bb4:	73df      	strb	r7, [r3, #15]
10000bb6:	68e2      	ldr	r2, [r4, #12]
10000bb8:	3f01      	subs	r7, #1
10000bba:	5dd3      	ldrb	r3, [r2, r7]
10000bbc:	3301      	adds	r3, #1
10000bbe:	55d3      	strb	r3, [r2, r7]
10000bc0:	465b      	mov	r3, fp
10000bc2:	6123      	str	r3, [r4, #16]
10000bc4:	6863      	ldr	r3, [r4, #4]
10000bc6:	f3bf 8f5f 	dmb	sy
10000bca:	465a      	mov	r2, fp
10000bcc:	601a      	str	r2, [r3, #0]
10000bce:	f38a 8810 	msr	PRIMASK, sl
10000bd2:	e77c      	b.n	10000ace <alarm_pool_alarm_callback+0x1e>
10000bd4:	2e00      	cmp	r6, #0
10000bd6:	d102      	bne.n	10000bde <alarm_pool_alarm_callback+0x12e>
10000bd8:	2d00      	cmp	r5, #0
10000bda:	d000      	beq.n	10000bde <alarm_pool_alarm_callback+0x12e>
10000bdc:	e79a      	b.n	10000b14 <alarm_pool_alarm_callback+0x64>
10000bde:	2100      	movs	r1, #0
10000be0:	4660      	mov	r0, ip
10000be2:	f000 fcd3 	bl	1000158c <ph_remove_head>
10000be6:	464b      	mov	r3, r9
10000be8:	681a      	ldr	r2, [r3, #0]
10000bea:	685b      	ldr	r3, [r3, #4]
10000bec:	9206      	str	r2, [sp, #24]
10000bee:	9307      	str	r3, [sp, #28]
10000bf0:	464b      	mov	r3, r9
10000bf2:	689b      	ldr	r3, [r3, #8]
10000bf4:	4698      	mov	r8, r3
10000bf6:	464b      	mov	r3, r9
10000bf8:	68db      	ldr	r3, [r3, #12]
10000bfa:	4699      	mov	r9, r3
10000bfc:	68e3      	ldr	r3, [r4, #12]
10000bfe:	19db      	adds	r3, r3, r7
10000c00:	3b01      	subs	r3, #1
10000c02:	781b      	ldrb	r3, [r3, #0]
10000c04:	9308      	str	r3, [sp, #32]
10000c06:	021b      	lsls	r3, r3, #8
10000c08:	4303      	orrs	r3, r0
10000c0a:	6123      	str	r3, [r4, #16]
10000c0c:	2000      	movs	r0, #0
10000c0e:	e78e      	b.n	10000b2e <alarm_pool_alarm_callback+0x7e>
10000c10:	6923      	ldr	r3, [r4, #16]
10000c12:	2b00      	cmp	r3, #0
10000c14:	d0c0      	beq.n	10000b98 <alarm_pool_alarm_callback+0xe8>
10000c16:	9a06      	ldr	r2, [sp, #24]
10000c18:	9b07      	ldr	r3, [sp, #28]
10000c1a:	2180      	movs	r1, #128	@ 0x80
10000c1c:	1b52      	subs	r2, r2, r5
10000c1e:	41b3      	sbcs	r3, r6
10000c20:	0609      	lsls	r1, r1, #24
10000c22:	428b      	cmp	r3, r1
10000c24:	d302      	bcc.n	10000c2c <alarm_pool_alarm_callback+0x17c>
10000c26:	2201      	movs	r2, #1
10000c28:	4b10      	ldr	r3, [pc, #64]	@ (10000c6c <alarm_pool_alarm_callback+0x1bc>)
10000c2a:	4252      	negs	r2, r2
10000c2c:	2100      	movs	r1, #0
10000c2e:	9104      	str	r1, [sp, #16]
10000c30:	3101      	adds	r1, #1
10000c32:	9103      	str	r1, [sp, #12]
10000c34:	4649      	mov	r1, r9
10000c36:	9101      	str	r1, [sp, #4]
10000c38:	4641      	mov	r1, r8
10000c3a:	0020      	movs	r0, r4
10000c3c:	9702      	str	r7, [sp, #8]
10000c3e:	9100      	str	r1, [sp, #0]
10000c40:	f7ff feb6 	bl	100009b0 <add_alarm_under_lock.isra.0>
10000c44:	e7bc      	b.n	10000bc0 <alarm_pool_alarm_callback+0x110>
10000c46:	f000 fa6b 	bl	10001120 <time_us_64>
10000c4a:	002a      	movs	r2, r5
10000c4c:	0033      	movs	r3, r6
10000c4e:	1812      	adds	r2, r2, r0
10000c50:	414b      	adcs	r3, r1
10000c52:	2180      	movs	r1, #128	@ 0x80
10000c54:	0609      	lsls	r1, r1, #24
10000c56:	428b      	cmp	r3, r1
10000c58:	d3e8      	bcc.n	10000c2c <alarm_pool_alarm_callback+0x17c>
10000c5a:	2201      	movs	r2, #1
10000c5c:	4b03      	ldr	r3, [pc, #12]	@ (10000c6c <alarm_pool_alarm_callback+0x1bc>)
10000c5e:	4252      	negs	r2, r2
10000c60:	e7e4      	b.n	10000c2c <alarm_pool_alarm_callback+0x17c>
10000c62:	46c0      	nop			@ (mov r8, r8)
10000c64:	20000518 	.word	0x20000518
10000c68:	0fffffff 	.word	0x0fffffff
10000c6c:	7fffffff 	.word	0x7fffffff

10000c70 <alarm_pool_init_default>:
10000c70:	b510      	push	{r4, lr}
10000c72:	4c14      	ldr	r4, [pc, #80]	@ (10000cc4 <alarm_pool_init_default+0x54>)
10000c74:	6863      	ldr	r3, [r4, #4]
10000c76:	2b00      	cmp	r3, #0
10000c78:	d004      	beq.n	10000c84 <alarm_pool_init_default+0x14>
10000c7a:	210a      	movs	r1, #10
10000c7c:	4812      	ldr	r0, [pc, #72]	@ (10000cc8 <alarm_pool_init_default+0x58>)
10000c7e:	f7ff fe41 	bl	10000904 <lock_init>
10000c82:	bd10      	pop	{r4, pc}
10000c84:	0023      	movs	r3, r4
10000c86:	4a11      	ldr	r2, [pc, #68]	@ (10000ccc <alarm_pool_init_default+0x5c>)
10000c88:	2110      	movs	r1, #16
10000c8a:	6820      	ldr	r0, [r4, #0]
10000c8c:	f000 fb94 	bl	100013b8 <ph_post_alloc_init>
10000c90:	2003      	movs	r0, #3
10000c92:	f000 fa39 	bl	10001108 <hardware_alarm_claim>
10000c96:	2003      	movs	r0, #3
10000c98:	f000 fb3e 	bl	10001318 <hardware_alarm_cancel>
10000c9c:	2003      	movs	r0, #3
10000c9e:	490c      	ldr	r1, [pc, #48]	@ (10000cd0 <alarm_pool_init_default+0x60>)
10000ca0:	f000 fa8c 	bl	100011bc <hardware_alarm_set_callback>
10000ca4:	f7ff fc90 	bl	100005c8 <next_striped_spin_lock_num>
10000ca8:	4b0a      	ldr	r3, [pc, #40]	@ (10000cd4 <alarm_pool_init_default+0x64>)
10000caa:	469c      	mov	ip, r3
10000cac:	2303      	movs	r3, #3
10000cae:	7523      	strb	r3, [r4, #20]
10000cb0:	23d0      	movs	r3, #208	@ 0xd0
10000cb2:	061b      	lsls	r3, r3, #24
10000cb4:	681b      	ldr	r3, [r3, #0]
10000cb6:	4460      	add	r0, ip
10000cb8:	7563      	strb	r3, [r4, #21]
10000cba:	4b07      	ldr	r3, [pc, #28]	@ (10000cd8 <alarm_pool_init_default+0x68>)
10000cbc:	0080      	lsls	r0, r0, #2
10000cbe:	6060      	str	r0, [r4, #4]
10000cc0:	60dc      	str	r4, [r3, #12]
10000cc2:	e7da      	b.n	10000c7a <alarm_pool_init_default+0xa>
10000cc4:	200001e4 	.word	0x200001e4
10000cc8:	2000062c 	.word	0x2000062c
10000ccc:	1000094d 	.word	0x1000094d
10000cd0:	10000ab1 	.word	0x10000ab1
10000cd4:	34000040 	.word	0x34000040
10000cd8:	20000518 	.word	0x20000518

10000cdc <alarm_pool_add_alarm_at>:
10000cdc:	b5f0      	push	{r4, r5, r6, r7, lr}
10000cde:	4657      	mov	r7, sl
10000ce0:	464e      	mov	r6, r9
10000ce2:	4645      	mov	r5, r8
10000ce4:	46de      	mov	lr, fp
10000ce6:	b5e0      	push	{r5, r6, r7, lr}
10000ce8:	b085      	sub	sp, #20
10000cea:	9301      	str	r3, [sp, #4]
10000cec:	ab10      	add	r3, sp, #64	@ 0x40
10000cee:	781b      	ldrb	r3, [r3, #0]
10000cf0:	0006      	movs	r6, r0
10000cf2:	9303      	str	r3, [sp, #12]
10000cf4:	2300      	movs	r3, #0
10000cf6:	469a      	mov	sl, r3
10000cf8:	4698      	mov	r8, r3
10000cfa:	9200      	str	r2, [sp, #0]
10000cfc:	6872      	ldr	r2, [r6, #4]
10000cfe:	f3ef 8b10 	mrs	fp, PRIMASK
10000d02:	b672      	cpsid	i
10000d04:	6813      	ldr	r3, [r2, #0]
10000d06:	2b00      	cmp	r3, #0
10000d08:	d0fc      	beq.n	10000d04 <alarm_pool_add_alarm_at+0x28>
10000d0a:	f3bf 8f5f 	dmb	sy
10000d0e:	6835      	ldr	r5, [r6, #0]
10000d10:	7bac      	ldrb	r4, [r5, #14]
10000d12:	2c00      	cmp	r4, #0
10000d14:	d100      	bne.n	10000d18 <alarm_pool_add_alarm_at+0x3c>
10000d16:	e06f      	b.n	10000df8 <alarm_pool_add_alarm_at+0x11c>
10000d18:	0067      	lsls	r7, r4, #1
10000d1a:	682b      	ldr	r3, [r5, #0]
10000d1c:	193f      	adds	r7, r7, r4
10000d1e:	3f03      	subs	r7, #3
10000d20:	19db      	adds	r3, r3, r7
10000d22:	785a      	ldrb	r2, [r3, #1]
10000d24:	73aa      	strb	r2, [r5, #14]
10000d26:	2a00      	cmp	r2, #0
10000d28:	d100      	bne.n	10000d2c <alarm_pool_add_alarm_at+0x50>
10000d2a:	73ea      	strb	r2, [r5, #15]
10000d2c:	4a4b      	ldr	r2, [pc, #300]	@ (10000e5c <alarm_pool_add_alarm_at+0x180>)
10000d2e:	18a1      	adds	r1, r4, r2
10000d30:	68b2      	ldr	r2, [r6, #8]
10000d32:	0109      	lsls	r1, r1, #4
10000d34:	1852      	adds	r2, r2, r1
10000d36:	9800      	ldr	r0, [sp, #0]
10000d38:	9901      	ldr	r1, [sp, #4]
10000d3a:	6010      	str	r0, [r2, #0]
10000d3c:	6051      	str	r1, [r2, #4]
10000d3e:	990e      	ldr	r1, [sp, #56]	@ 0x38
10000d40:	6091      	str	r1, [r2, #8]
10000d42:	990f      	ldr	r1, [sp, #60]	@ 0x3c
10000d44:	60d1      	str	r1, [r2, #12]
10000d46:	4642      	mov	r2, r8
10000d48:	709a      	strb	r2, [r3, #2]
10000d4a:	705a      	strb	r2, [r3, #1]
10000d4c:	701a      	strb	r2, [r3, #0]
10000d4e:	7b6b      	ldrb	r3, [r5, #13]
10000d50:	4699      	mov	r9, r3
10000d52:	2b00      	cmp	r3, #0
10000d54:	d100      	bne.n	10000d58 <alarm_pool_add_alarm_at+0x7c>
10000d56:	e070      	b.n	10000e3a <alarm_pool_add_alarm_at+0x15e>
10000d58:	0022      	movs	r2, r4
10000d5a:	4649      	mov	r1, r9
10000d5c:	68a8      	ldr	r0, [r5, #8]
10000d5e:	686b      	ldr	r3, [r5, #4]
10000d60:	4798      	blx	r3
10000d62:	682a      	ldr	r2, [r5, #0]
10000d64:	2800      	cmp	r0, #0
10000d66:	d05b      	beq.n	10000e20 <alarm_pool_add_alarm_at+0x144>
10000d68:	464b      	mov	r3, r9
10000d6a:	4648      	mov	r0, r9
10000d6c:	005b      	lsls	r3, r3, #1
10000d6e:	444b      	add	r3, r9
10000d70:	19d7      	adds	r7, r2, r7
10000d72:	3b03      	subs	r3, #3
10000d74:	70b8      	strb	r0, [r7, #2]
10000d76:	18d1      	adds	r1, r2, r3
10000d78:	5cd3      	ldrb	r3, [r2, r3]
10000d7a:	2b00      	cmp	r3, #0
10000d7c:	d000      	beq.n	10000d80 <alarm_pool_add_alarm_at+0xa4>
10000d7e:	707b      	strb	r3, [r7, #1]
10000d80:	464b      	mov	r3, r9
10000d82:	700c      	strb	r4, [r1, #0]
10000d84:	736b      	strb	r3, [r5, #13]
10000d86:	454c      	cmp	r4, r9
10000d88:	d058      	beq.n	10000e3c <alarm_pool_add_alarm_at+0x160>
10000d8a:	68f3      	ldr	r3, [r6, #12]
10000d8c:	191b      	adds	r3, r3, r4
10000d8e:	3b01      	subs	r3, #1
10000d90:	7818      	ldrb	r0, [r3, #0]
10000d92:	6873      	ldr	r3, [r6, #4]
10000d94:	f3bf 8f5f 	dmb	sy
10000d98:	4642      	mov	r2, r8
10000d9a:	601a      	str	r2, [r3, #0]
10000d9c:	f38b 8810 	msr	PRIMASK, fp
10000da0:	4653      	mov	r3, sl
10000da2:	2b00      	cmp	r3, #0
10000da4:	d108      	bne.n	10000db8 <alarm_pool_add_alarm_at+0xdc>
10000da6:	0200      	lsls	r0, r0, #8
10000da8:	4320      	orrs	r0, r4
10000daa:	b005      	add	sp, #20
10000dac:	bcf0      	pop	{r4, r5, r6, r7}
10000dae:	46bb      	mov	fp, r7
10000db0:	46b2      	mov	sl, r6
10000db2:	46a9      	mov	r9, r5
10000db4:	46a0      	mov	r8, r4
10000db6:	bdf0      	pop	{r4, r5, r6, r7, pc}
10000db8:	9b03      	ldr	r3, [sp, #12]
10000dba:	2b00      	cmp	r3, #0
10000dbc:	d04b      	beq.n	10000e56 <alarm_pool_add_alarm_at+0x17a>
10000dbe:	9b0e      	ldr	r3, [sp, #56]	@ 0x38
10000dc0:	2000      	movs	r0, #0
10000dc2:	990f      	ldr	r1, [sp, #60]	@ 0x3c
10000dc4:	4798      	blx	r3
10000dc6:	0003      	movs	r3, r0
10000dc8:	0004      	movs	r4, r0
10000dca:	000d      	movs	r5, r1
10000dcc:	430b      	orrs	r3, r1
10000dce:	d042      	beq.n	10000e56 <alarm_pool_add_alarm_at+0x17a>
10000dd0:	2900      	cmp	r1, #0
10000dd2:	da1a      	bge.n	10000e0a <alarm_pool_add_alarm_at+0x12e>
10000dd4:	9a00      	ldr	r2, [sp, #0]
10000dd6:	9b01      	ldr	r3, [sp, #4]
10000dd8:	1b12      	subs	r2, r2, r4
10000dda:	41ab      	sbcs	r3, r5
10000ddc:	9200      	str	r2, [sp, #0]
10000dde:	9301      	str	r3, [sp, #4]
10000de0:	2280      	movs	r2, #128	@ 0x80
10000de2:	0612      	lsls	r2, r2, #24
10000de4:	4293      	cmp	r3, r2
10000de6:	d304      	bcc.n	10000df2 <alarm_pool_add_alarm_at+0x116>
10000de8:	2301      	movs	r3, #1
10000dea:	4c1d      	ldr	r4, [pc, #116]	@ (10000e60 <alarm_pool_add_alarm_at+0x184>)
10000dec:	425b      	negs	r3, r3
10000dee:	9300      	str	r3, [sp, #0]
10000df0:	9401      	str	r4, [sp, #4]
10000df2:	9b03      	ldr	r3, [sp, #12]
10000df4:	469a      	mov	sl, r3
10000df6:	e781      	b.n	10000cfc <alarm_pool_add_alarm_at+0x20>
10000df8:	6873      	ldr	r3, [r6, #4]
10000dfa:	f3bf 8f5f 	dmb	sy
10000dfe:	601c      	str	r4, [r3, #0]
10000e00:	f38b 8810 	msr	PRIMASK, fp
10000e04:	2001      	movs	r0, #1
10000e06:	4240      	negs	r0, r0
10000e08:	e7cf      	b.n	10000daa <alarm_pool_add_alarm_at+0xce>
10000e0a:	f000 f989 	bl	10001120 <time_us_64>
10000e0e:	2280      	movs	r2, #128	@ 0x80
10000e10:	1824      	adds	r4, r4, r0
10000e12:	414d      	adcs	r5, r1
10000e14:	0612      	lsls	r2, r2, #24
10000e16:	9400      	str	r4, [sp, #0]
10000e18:	9501      	str	r5, [sp, #4]
10000e1a:	4295      	cmp	r5, r2
10000e1c:	d3e9      	bcc.n	10000df2 <alarm_pool_add_alarm_at+0x116>
10000e1e:	e7e3      	b.n	10000de8 <alarm_pool_add_alarm_at+0x10c>
10000e20:	464b      	mov	r3, r9
10000e22:	005b      	lsls	r3, r3, #1
10000e24:	444b      	add	r3, r9
10000e26:	3b03      	subs	r3, #3
10000e28:	18d3      	adds	r3, r2, r3
10000e2a:	709c      	strb	r4, [r3, #2]
10000e2c:	19d1      	adds	r1, r2, r7
10000e2e:	5dd2      	ldrb	r2, [r2, r7]
10000e30:	2a00      	cmp	r2, #0
10000e32:	d000      	beq.n	10000e36 <alarm_pool_add_alarm_at+0x15a>
10000e34:	705a      	strb	r2, [r3, #1]
10000e36:	464b      	mov	r3, r9
10000e38:	700b      	strb	r3, [r1, #0]
10000e3a:	736c      	strb	r4, [r5, #13]
10000e3c:	7d30      	ldrb	r0, [r6, #20]
10000e3e:	9a00      	ldr	r2, [sp, #0]
10000e40:	9b01      	ldr	r3, [sp, #4]
10000e42:	f000 fa01 	bl	10001248 <hardware_alarm_set_target>
10000e46:	4682      	mov	sl, r0
10000e48:	2800      	cmp	r0, #0
10000e4a:	d09e      	beq.n	10000d8a <alarm_pool_add_alarm_at+0xae>
10000e4c:	0021      	movs	r1, r4
10000e4e:	6830      	ldr	r0, [r6, #0]
10000e50:	f000 fc1e 	bl	10001690 <ph_remove_and_free_node>
10000e54:	e799      	b.n	10000d8a <alarm_pool_add_alarm_at+0xae>
10000e56:	2000      	movs	r0, #0
10000e58:	e7a7      	b.n	10000daa <alarm_pool_add_alarm_at+0xce>
10000e5a:	46c0      	nop			@ (mov r8, r8)
10000e5c:	0fffffff 	.word	0x0fffffff
10000e60:	7fffffff 	.word	0x7fffffff

10000e64 <sleep_until>:
10000e64:	b5f0      	push	{r4, r5, r6, r7, lr}
10000e66:	0004      	movs	r4, r0
10000e68:	000d      	movs	r5, r1
10000e6a:	2606      	movs	r6, #6
10000e6c:	4276      	negs	r6, r6
10000e6e:	17f7      	asrs	r7, r6, #31
10000e70:	46c6      	mov	lr, r8
10000e72:	1936      	adds	r6, r6, r4
10000e74:	416f      	adcs	r7, r5
10000e76:	b500      	push	{lr}
10000e78:	b084      	sub	sp, #16
10000e7a:	428f      	cmp	r7, r1
10000e7c:	d814      	bhi.n	10000ea8 <sleep_until+0x44>
10000e7e:	d011      	beq.n	10000ea4 <sleep_until+0x40>
10000e80:	f000 f94e 	bl	10001120 <time_us_64>
10000e84:	0032      	movs	r2, r6
10000e86:	003b      	movs	r3, r7
10000e88:	1a12      	subs	r2, r2, r0
10000e8a:	418b      	sbcs	r3, r1
10000e8c:	2b00      	cmp	r3, #0
10000e8e:	dc15      	bgt.n	10000ebc <sleep_until+0x58>
10000e90:	2b00      	cmp	r3, #0
10000e92:	d03e      	beq.n	10000f12 <sleep_until+0xae>
10000e94:	0020      	movs	r0, r4
10000e96:	0029      	movs	r1, r5
10000e98:	f000 f980 	bl	1000119c <busy_wait_until>
10000e9c:	b004      	add	sp, #16
10000e9e:	bc80      	pop	{r7}
10000ea0:	46b8      	mov	r8, r7
10000ea2:	bdf0      	pop	{r4, r5, r6, r7, pc}
10000ea4:	4286      	cmp	r6, r0
10000ea6:	d9eb      	bls.n	10000e80 <sleep_until+0x1c>
10000ea8:	2600      	movs	r6, #0
10000eaa:	2700      	movs	r7, #0
10000eac:	f000 f938 	bl	10001120 <time_us_64>
10000eb0:	0032      	movs	r2, r6
10000eb2:	003b      	movs	r3, r7
10000eb4:	1a12      	subs	r2, r2, r0
10000eb6:	418b      	sbcs	r3, r1
10000eb8:	2b00      	cmp	r3, #0
10000eba:	dde9      	ble.n	10000e90 <sleep_until+0x2c>
10000ebc:	2300      	movs	r3, #0
10000ebe:	9302      	str	r3, [sp, #8]
10000ec0:	9301      	str	r3, [sp, #4]
10000ec2:	4b15      	ldr	r3, [pc, #84]	@ (10000f18 <sleep_until+0xb4>)
10000ec4:	0032      	movs	r2, r6
10000ec6:	9300      	str	r3, [sp, #0]
10000ec8:	4814      	ldr	r0, [pc, #80]	@ (10000f1c <sleep_until+0xb8>)
10000eca:	003b      	movs	r3, r7
10000ecc:	f7ff ff06 	bl	10000cdc <alarm_pool_add_alarm_at>
10000ed0:	2800      	cmp	r0, #0
10000ed2:	dbdf      	blt.n	10000e94 <sleep_until+0x30>
10000ed4:	2300      	movs	r3, #0
10000ed6:	4698      	mov	r8, r3
10000ed8:	46bc      	mov	ip, r7
10000eda:	4a11      	ldr	r2, [pc, #68]	@ (10000f20 <sleep_until+0xbc>)
10000edc:	4f11      	ldr	r7, [pc, #68]	@ (10000f24 <sleep_until+0xc0>)
10000ede:	6a7b      	ldr	r3, [r7, #36]	@ 0x24
10000ee0:	459c      	cmp	ip, r3
10000ee2:	d804      	bhi.n	10000eee <sleep_until+0x8a>
10000ee4:	6ab9      	ldr	r1, [r7, #40]	@ 0x28
10000ee6:	42b1      	cmp	r1, r6
10000ee8:	d2d4      	bcs.n	10000e94 <sleep_until+0x30>
10000eea:	459c      	cmp	ip, r3
10000eec:	d1d2      	bne.n	10000e94 <sleep_until+0x30>
10000eee:	6811      	ldr	r1, [r2, #0]
10000ef0:	f3ef 8010 	mrs	r0, PRIMASK
10000ef4:	b672      	cpsid	i
10000ef6:	680b      	ldr	r3, [r1, #0]
10000ef8:	2b00      	cmp	r3, #0
10000efa:	d0fc      	beq.n	10000ef6 <sleep_until+0x92>
10000efc:	f3bf 8f5f 	dmb	sy
10000f00:	6813      	ldr	r3, [r2, #0]
10000f02:	f3bf 8f5f 	dmb	sy
10000f06:	4641      	mov	r1, r8
10000f08:	6019      	str	r1, [r3, #0]
10000f0a:	f380 8810 	msr	PRIMASK, r0
10000f0e:	bf20      	wfe
10000f10:	e7e5      	b.n	10000ede <sleep_until+0x7a>
10000f12:	2a00      	cmp	r2, #0
10000f14:	d0be      	beq.n	10000e94 <sleep_until+0x30>
10000f16:	e7d1      	b.n	10000ebc <sleep_until+0x58>
10000f18:	10000981 	.word	0x10000981
10000f1c:	200001e4 	.word	0x200001e4
10000f20:	2000062c 	.word	0x2000062c
10000f24:	40054000 	.word	0x40054000

10000f28 <sleep_ms>:
10000f28:	b570      	push	{r4, r5, r6, lr}
10000f2a:	0006      	movs	r6, r0
10000f2c:	f000 f8f8 	bl	10001120 <time_us_64>
10000f30:	22fa      	movs	r2, #250	@ 0xfa
10000f32:	0004      	movs	r4, r0
10000f34:	000d      	movs	r5, r1
10000f36:	2300      	movs	r3, #0
10000f38:	0030      	movs	r0, r6
10000f3a:	2100      	movs	r1, #0
10000f3c:	0092      	lsls	r2, r2, #2
10000f3e:	f002 fe0b 	bl	10003b58 <__wrap___aeabi_lmul>
10000f42:	2380      	movs	r3, #128	@ 0x80
10000f44:	1900      	adds	r0, r0, r4
10000f46:	4169      	adcs	r1, r5
10000f48:	061b      	lsls	r3, r3, #24
10000f4a:	4299      	cmp	r1, r3
10000f4c:	d302      	bcc.n	10000f54 <sleep_ms+0x2c>
10000f4e:	2001      	movs	r0, #1
10000f50:	4902      	ldr	r1, [pc, #8]	@ (10000f5c <sleep_ms+0x34>)
10000f52:	4240      	negs	r0, r0
10000f54:	f7ff ff86 	bl	10000e64 <sleep_until>
10000f58:	bd70      	pop	{r4, r5, r6, pc}
10000f5a:	46c0      	nop			@ (mov r8, r8)
10000f5c:	7fffffff 	.word	0x7fffffff

10000f60 <best_effort_wfe_or_timeout>:
10000f60:	b5f0      	push	{r4, r5, r6, r7, lr}
10000f62:	f3ef 8305 	mrs	r3, IPSR
10000f66:	46ce      	mov	lr, r9
10000f68:	4647      	mov	r7, r8
10000f6a:	b580      	push	{r7, lr}
10000f6c:	0005      	movs	r5, r0
10000f6e:	000c      	movs	r4, r1
10000f70:	b085      	sub	sp, #20
10000f72:	2b00      	cmp	r3, #0
10000f74:	d00d      	beq.n	10000f92 <best_effort_wfe_or_timeout+0x32>
10000f76:	4a32      	ldr	r2, [pc, #200]	@ (10001040 <best_effort_wfe_or_timeout+0xe0>)
10000f78:	2000      	movs	r0, #0
10000f7a:	6a53      	ldr	r3, [r2, #36]	@ 0x24
10000f7c:	429c      	cmp	r4, r3
10000f7e:	d803      	bhi.n	10000f88 <best_effort_wfe_or_timeout+0x28>
10000f80:	6a92      	ldr	r2, [r2, #40]	@ 0x28
10000f82:	3001      	adds	r0, #1
10000f84:	42aa      	cmp	r2, r5
10000f86:	d332      	bcc.n	10000fee <best_effort_wfe_or_timeout+0x8e>
10000f88:	b005      	add	sp, #20
10000f8a:	bcc0      	pop	{r6, r7}
10000f8c:	46b9      	mov	r9, r7
10000f8e:	46b0      	mov	r8, r6
10000f90:	bdf0      	pop	{r4, r5, r6, r7, pc}
10000f92:	4e2c      	ldr	r6, [pc, #176]	@ (10001044 <best_effort_wfe_or_timeout+0xe4>)
10000f94:	9302      	str	r3, [sp, #8]
10000f96:	9301      	str	r3, [sp, #4]
10000f98:	4b2b      	ldr	r3, [pc, #172]	@ (10001048 <best_effort_wfe_or_timeout+0xe8>)
10000f9a:	0002      	movs	r2, r0
10000f9c:	9300      	str	r3, [sp, #0]
10000f9e:	0030      	movs	r0, r6
10000fa0:	000b      	movs	r3, r1
10000fa2:	f7ff fe9b 	bl	10000cdc <alarm_pool_add_alarm_at>
10000fa6:	1e03      	subs	r3, r0, #0
10000fa8:	dde5      	ble.n	10000f76 <best_effort_wfe_or_timeout+0x16>
10000faa:	bf20      	wfe
10000fac:	6871      	ldr	r1, [r6, #4]
10000fae:	f3ef 8710 	mrs	r7, PRIMASK
10000fb2:	b672      	cpsid	i
10000fb4:	680a      	ldr	r2, [r1, #0]
10000fb6:	2a00      	cmp	r2, #0
10000fb8:	d0fc      	beq.n	10000fb4 <best_effort_wfe_or_timeout+0x54>
10000fba:	f3bf 8f5f 	dmb	sy
10000fbe:	b2da      	uxtb	r2, r3
10000fc0:	4694      	mov	ip, r2
10000fc2:	6830      	ldr	r0, [r6, #0]
10000fc4:	7b42      	ldrb	r2, [r0, #13]
10000fc6:	4562      	cmp	r2, ip
10000fc8:	d016      	beq.n	10000ff8 <best_effort_wfe_or_timeout+0x98>
10000fca:	22ff      	movs	r2, #255	@ 0xff
10000fcc:	6801      	ldr	r1, [r0, #0]
10000fce:	401a      	ands	r2, r3
10000fd0:	4689      	mov	r9, r1
10000fd2:	0051      	lsls	r1, r2, #1
10000fd4:	4688      	mov	r8, r1
10000fd6:	4649      	mov	r1, r9
10000fd8:	4490      	add	r8, r2
10000fda:	4441      	add	r1, r8
10000fdc:	3903      	subs	r1, #3
10000fde:	7889      	ldrb	r1, [r1, #2]
10000fe0:	2900      	cmp	r1, #0
10000fe2:	d10b      	bne.n	10000ffc <best_effort_wfe_or_timeout+0x9c>
10000fe4:	6932      	ldr	r2, [r6, #16]
10000fe6:	4293      	cmp	r3, r2
10000fe8:	d110      	bne.n	1000100c <best_effort_wfe_or_timeout+0xac>
10000fea:	6131      	str	r1, [r6, #16]
10000fec:	e00e      	b.n	1000100c <best_effort_wfe_or_timeout+0xac>
10000fee:	1ae3      	subs	r3, r4, r3
10000ff0:	1e5a      	subs	r2, r3, #1
10000ff2:	4193      	sbcs	r3, r2
10000ff4:	b2d8      	uxtb	r0, r3
10000ff6:	e7c7      	b.n	10000f88 <best_effort_wfe_or_timeout+0x28>
10000ff8:	22ff      	movs	r2, #255	@ 0xff
10000ffa:	401a      	ands	r2, r3
10000ffc:	68f1      	ldr	r1, [r6, #12]
10000ffe:	0a1b      	lsrs	r3, r3, #8
10001000:	188a      	adds	r2, r1, r2
10001002:	3a01      	subs	r2, #1
10001004:	7812      	ldrb	r2, [r2, #0]
10001006:	b2db      	uxtb	r3, r3
10001008:	429a      	cmp	r2, r3
1000100a:	d014      	beq.n	10001036 <best_effort_wfe_or_timeout+0xd6>
1000100c:	6873      	ldr	r3, [r6, #4]
1000100e:	f3bf 8f5f 	dmb	sy
10001012:	2200      	movs	r2, #0
10001014:	601a      	str	r2, [r3, #0]
10001016:	f387 8810 	msr	PRIMASK, r7
1000101a:	4b09      	ldr	r3, [pc, #36]	@ (10001040 <best_effort_wfe_or_timeout+0xe0>)
1000101c:	2000      	movs	r0, #0
1000101e:	6a5a      	ldr	r2, [r3, #36]	@ 0x24
10001020:	4294      	cmp	r4, r2
10001022:	d8b1      	bhi.n	10000f88 <best_effort_wfe_or_timeout+0x28>
10001024:	6a9b      	ldr	r3, [r3, #40]	@ 0x28
10001026:	3001      	adds	r0, #1
10001028:	42ab      	cmp	r3, r5
1000102a:	d2ad      	bcs.n	10000f88 <best_effort_wfe_or_timeout+0x28>
1000102c:	1aa4      	subs	r4, r4, r2
1000102e:	1e63      	subs	r3, r4, #1
10001030:	419c      	sbcs	r4, r3
10001032:	b2e0      	uxtb	r0, r4
10001034:	e7a8      	b.n	10000f88 <best_effort_wfe_or_timeout+0x28>
10001036:	4661      	mov	r1, ip
10001038:	f000 fb2a 	bl	10001690 <ph_remove_and_free_node>
1000103c:	e7e6      	b.n	1000100c <best_effort_wfe_or_timeout+0xac>
1000103e:	46c0      	nop			@ (mov r8, r8)
10001040:	40054000 	.word	0x40054000
10001044:	200001e4 	.word	0x200001e4
10001048:	10000981 	.word	0x10000981

1000104c <hardware_alarm_irq_handler>:
1000104c:	b5f0      	push	{r4, r5, r6, r7, lr}
1000104e:	f3ef 8205 	mrs	r2, IPSR
10001052:	46d6      	mov	lr, sl
10001054:	464f      	mov	r7, r9
10001056:	4646      	mov	r6, r8
10001058:	0010      	movs	r0, r2
1000105a:	b5c0      	push	{r6, r7, lr}
1000105c:	3810      	subs	r0, #16
1000105e:	f3ef 8810 	mrs	r8, PRIMASK
10001062:	b672      	cpsid	i
10001064:	4c21      	ldr	r4, [pc, #132]	@ (100010ec <hardware_alarm_irq_handler+0xa0>)
10001066:	6823      	ldr	r3, [r4, #0]
10001068:	2b00      	cmp	r3, #0
1000106a:	d0fc      	beq.n	10001066 <hardware_alarm_irq_handler+0x1a>
1000106c:	f3bf 8f5f 	dmb	sy
10001070:	2301      	movs	r3, #1
10001072:	0019      	movs	r1, r3
10001074:	4081      	lsls	r1, r0
10001076:	4d1e      	ldr	r5, [pc, #120]	@ (100010f0 <hardware_alarm_irq_handler+0xa4>)
10001078:	001f      	movs	r7, r3
1000107a:	6369      	str	r1, [r5, #52]	@ 0x34
1000107c:	46aa      	mov	sl, r5
1000107e:	4d1d      	ldr	r5, [pc, #116]	@ (100010f4 <hardware_alarm_irq_handler+0xa8>)
10001080:	6029      	str	r1, [r5, #0]
10001082:	4d1d      	ldr	r5, [pc, #116]	@ (100010f8 <hardware_alarm_irq_handler+0xac>)
10001084:	782e      	ldrb	r6, [r5, #0]
10001086:	46ac      	mov	ip, r5
10001088:	0035      	movs	r5, r6
1000108a:	40c5      	lsrs	r5, r0
1000108c:	402f      	ands	r7, r5
1000108e:	422b      	tst	r3, r5
10001090:	d015      	beq.n	100010be <hardware_alarm_irq_handler+0x72>
10001092:	4653      	mov	r3, sl
10001094:	6a5f      	ldr	r7, [r3, #36]	@ 0x24
10001096:	4b19      	ldr	r3, [pc, #100]	@ (100010fc <hardware_alarm_irq_handler+0xb0>)
10001098:	0085      	lsls	r5, r0, #2
1000109a:	58eb      	ldr	r3, [r5, r3]
1000109c:	429f      	cmp	r7, r3
1000109e:	d318      	bcc.n	100010d2 <hardware_alarm_irq_handler+0x86>
100010a0:	4662      	mov	r2, ip
100010a2:	4b17      	ldr	r3, [pc, #92]	@ (10001100 <hardware_alarm_irq_handler+0xb4>)
100010a4:	438e      	bics	r6, r1
100010a6:	58eb      	ldr	r3, [r5, r3]
100010a8:	7016      	strb	r6, [r2, #0]
100010aa:	f3bf 8f5f 	dmb	sy
100010ae:	2200      	movs	r2, #0
100010b0:	6022      	str	r2, [r4, #0]
100010b2:	f388 8810 	msr	PRIMASK, r8
100010b6:	2b00      	cmp	r3, #0
100010b8:	d006      	beq.n	100010c8 <hardware_alarm_irq_handler+0x7c>
100010ba:	4798      	blx	r3
100010bc:	e004      	b.n	100010c8 <hardware_alarm_irq_handler+0x7c>
100010be:	f3bf 8f5f 	dmb	sy
100010c2:	6027      	str	r7, [r4, #0]
100010c4:	f388 8810 	msr	PRIMASK, r8
100010c8:	bce0      	pop	{r5, r6, r7}
100010ca:	46ba      	mov	sl, r7
100010cc:	46b1      	mov	r9, r6
100010ce:	46a8      	mov	r8, r5
100010d0:	bdf0      	pop	{r4, r5, r6, r7, pc}
100010d2:	4b0c      	ldr	r3, [pc, #48]	@ (10001104 <hardware_alarm_irq_handler+0xb8>)
100010d4:	0092      	lsls	r2, r2, #2
100010d6:	469c      	mov	ip, r3
100010d8:	4462      	add	r2, ip
100010da:	6813      	ldr	r3, [r2, #0]
100010dc:	6013      	str	r3, [r2, #0]
100010de:	f3bf 8f5f 	dmb	sy
100010e2:	2300      	movs	r3, #0
100010e4:	6023      	str	r3, [r4, #0]
100010e6:	f388 8810 	msr	PRIMASK, r8
100010ea:	e7ed      	b.n	100010c8 <hardware_alarm_irq_handler+0x7c>
100010ec:	d0000128 	.word	0xd0000128
100010f0:	40054000 	.word	0x40054000
100010f4:	4005703c 	.word	0x4005703c
100010f8:	2000064b 	.word	0x2000064b
100010fc:	20000630 	.word	0x20000630
10001100:	200004b4 	.word	0x200004b4
10001104:	40053fd0 	.word	0x40053fd0

10001108 <hardware_alarm_claim>:
10001108:	b510      	push	{r4, lr}
1000110a:	4b03      	ldr	r3, [pc, #12]	@ (10001118 <hardware_alarm_claim+0x10>)
1000110c:	0001      	movs	r1, r0
1000110e:	0018      	movs	r0, r3
10001110:	4a02      	ldr	r2, [pc, #8]	@ (1000111c <hardware_alarm_claim+0x14>)
10001112:	f7ff f9db 	bl	100004cc <hw_claim_or_assert>
10001116:	bd10      	pop	{r4, pc}
10001118:	20000648 	.word	0x20000648
1000111c:	1000495c 	.word	0x1000495c

10001120 <time_us_64>:
10001120:	4b03      	ldr	r3, [pc, #12]	@ (10001130 <time_us_64+0x10>)
10001122:	6a59      	ldr	r1, [r3, #36]	@ 0x24
10001124:	000a      	movs	r2, r1
10001126:	6a98      	ldr	r0, [r3, #40]	@ 0x28
10001128:	6a59      	ldr	r1, [r3, #36]	@ 0x24
1000112a:	428a      	cmp	r2, r1
1000112c:	d1fa      	bne.n	10001124 <time_us_64+0x4>
1000112e:	4770      	bx	lr
10001130:	40054000 	.word	0x40054000

10001134 <busy_wait_us>:
10001134:	b570      	push	{r4, r5, r6, lr}
10001136:	0004      	movs	r4, r0
10001138:	000d      	movs	r5, r1
1000113a:	4a17      	ldr	r2, [pc, #92]	@ (10001198 <busy_wait_us+0x64>)
1000113c:	6a53      	ldr	r3, [r2, #36]	@ 0x24
1000113e:	0019      	movs	r1, r3
10001140:	6a96      	ldr	r6, [r2, #40]	@ 0x28
10001142:	6a53      	ldr	r3, [r2, #36]	@ 0x24
10001144:	428b      	cmp	r3, r1
10001146:	d1fa      	bne.n	1000113e <busy_wait_us+0xa>
10001148:	0030      	movs	r0, r6
1000114a:	0019      	movs	r1, r3
1000114c:	1824      	adds	r4, r4, r0
1000114e:	414d      	adcs	r5, r1
10001150:	42ab      	cmp	r3, r5
10001152:	d816      	bhi.n	10001182 <busy_wait_us+0x4e>
10001154:	d013      	beq.n	1000117e <busy_wait_us+0x4a>
10001156:	4b10      	ldr	r3, [pc, #64]	@ (10001198 <busy_wait_us+0x64>)
10001158:	002a      	movs	r2, r5
1000115a:	6a5b      	ldr	r3, [r3, #36]	@ 0x24
1000115c:	429d      	cmp	r5, r3
1000115e:	d903      	bls.n	10001168 <busy_wait_us+0x34>
10001160:	490d      	ldr	r1, [pc, #52]	@ (10001198 <busy_wait_us+0x64>)
10001162:	6a4b      	ldr	r3, [r1, #36]	@ 0x24
10001164:	4293      	cmp	r3, r2
10001166:	d3fc      	bcc.n	10001162 <busy_wait_us+0x2e>
10001168:	4293      	cmp	r3, r2
1000116a:	d107      	bne.n	1000117c <busy_wait_us+0x48>
1000116c:	4a0a      	ldr	r2, [pc, #40]	@ (10001198 <busy_wait_us+0x64>)
1000116e:	e002      	b.n	10001176 <busy_wait_us+0x42>
10001170:	6a51      	ldr	r1, [r2, #36]	@ 0x24
10001172:	4299      	cmp	r1, r3
10001174:	d102      	bne.n	1000117c <busy_wait_us+0x48>
10001176:	6a91      	ldr	r1, [r2, #40]	@ 0x28
10001178:	42a1      	cmp	r1, r4
1000117a:	d3f9      	bcc.n	10001170 <busy_wait_us+0x3c>
1000117c:	bd70      	pop	{r4, r5, r6, pc}
1000117e:	42a6      	cmp	r6, r4
10001180:	d9e9      	bls.n	10001156 <busy_wait_us+0x22>
10001182:	4b05      	ldr	r3, [pc, #20]	@ (10001198 <busy_wait_us+0x64>)
10001184:	6a5b      	ldr	r3, [r3, #36]	@ 0x24
10001186:	001c      	movs	r4, r3
10001188:	1c5a      	adds	r2, r3, #1
1000118a:	d0ef      	beq.n	1000116c <busy_wait_us+0x38>
1000118c:	2201      	movs	r2, #1
1000118e:	2401      	movs	r4, #1
10001190:	4264      	negs	r4, r4
10001192:	17e5      	asrs	r5, r4, #31
10001194:	4252      	negs	r2, r2
10001196:	e7e3      	b.n	10001160 <busy_wait_us+0x2c>
10001198:	40054000 	.word	0x40054000

1000119c <busy_wait_until>:
1000119c:	4a06      	ldr	r2, [pc, #24]	@ (100011b8 <busy_wait_until+0x1c>)
1000119e:	6a53      	ldr	r3, [r2, #36]	@ 0x24
100011a0:	4299      	cmp	r1, r3
100011a2:	d8fc      	bhi.n	1000119e <busy_wait_until+0x2>
100011a4:	d107      	bne.n	100011b6 <busy_wait_until+0x1a>
100011a6:	4b04      	ldr	r3, [pc, #16]	@ (100011b8 <busy_wait_until+0x1c>)
100011a8:	e002      	b.n	100011b0 <busy_wait_until+0x14>
100011aa:	6a5a      	ldr	r2, [r3, #36]	@ 0x24
100011ac:	4291      	cmp	r1, r2
100011ae:	d102      	bne.n	100011b6 <busy_wait_until+0x1a>
100011b0:	6a9a      	ldr	r2, [r3, #40]	@ 0x28
100011b2:	4282      	cmp	r2, r0
100011b4:	d3f9      	bcc.n	100011aa <busy_wait_until+0xe>
100011b6:	4770      	bx	lr
100011b8:	40054000 	.word	0x40054000

100011bc <hardware_alarm_set_callback>:
100011bc:	b570      	push	{r4, r5, r6, lr}
100011be:	0004      	movs	r4, r0
100011c0:	000d      	movs	r5, r1
100011c2:	f3ef 8610 	mrs	r6, PRIMASK
100011c6:	b672      	cpsid	i
100011c8:	4a1a      	ldr	r2, [pc, #104]	@ (10001234 <hardware_alarm_set_callback+0x78>)
100011ca:	6813      	ldr	r3, [r2, #0]
100011cc:	2b00      	cmp	r3, #0
100011ce:	d0fc      	beq.n	100011ca <hardware_alarm_set_callback+0xe>
100011d0:	f3bf 8f5f 	dmb	sy
100011d4:	2d00      	cmp	r5, #0
100011d6:	d01b      	beq.n	10001210 <hardware_alarm_set_callback+0x54>
100011d8:	0020      	movs	r0, r4
100011da:	f7ff fa13 	bl	10000604 <irq_get_vtable_handler>
100011de:	4916      	ldr	r1, [pc, #88]	@ (10001238 <hardware_alarm_set_callback+0x7c>)
100011e0:	4281      	cmp	r1, r0
100011e2:	d00a      	beq.n	100011fa <hardware_alarm_set_callback+0x3e>
100011e4:	0020      	movs	r0, r4
100011e6:	f7ff fa15 	bl	10000614 <irq_set_exclusive_handler>
100011ea:	2101      	movs	r1, #1
100011ec:	0020      	movs	r0, r4
100011ee:	f7ff f9f7 	bl	100005e0 <irq_set_enabled>
100011f2:	2301      	movs	r3, #1
100011f4:	40a3      	lsls	r3, r4
100011f6:	4a11      	ldr	r2, [pc, #68]	@ (1000123c <hardware_alarm_set_callback+0x80>)
100011f8:	6013      	str	r3, [r2, #0]
100011fa:	4b11      	ldr	r3, [pc, #68]	@ (10001240 <hardware_alarm_set_callback+0x84>)
100011fc:	00a4      	lsls	r4, r4, #2
100011fe:	50e5      	str	r5, [r4, r3]
10001200:	f3bf 8f5f 	dmb	sy
10001204:	2200      	movs	r2, #0
10001206:	4b0b      	ldr	r3, [pc, #44]	@ (10001234 <hardware_alarm_set_callback+0x78>)
10001208:	601a      	str	r2, [r3, #0]
1000120a:	f386 8810 	msr	PRIMASK, r6
1000120e:	bd70      	pop	{r4, r5, r6, pc}
10001210:	2101      	movs	r1, #1
10001212:	40a1      	lsls	r1, r4
10001214:	4b0a      	ldr	r3, [pc, #40]	@ (10001240 <hardware_alarm_set_callback+0x84>)
10001216:	00a2      	lsls	r2, r4, #2
10001218:	50d5      	str	r5, [r2, r3]
1000121a:	4b0a      	ldr	r3, [pc, #40]	@ (10001244 <hardware_alarm_set_callback+0x88>)
1000121c:	0020      	movs	r0, r4
1000121e:	781a      	ldrb	r2, [r3, #0]
10001220:	438a      	bics	r2, r1
10001222:	4905      	ldr	r1, [pc, #20]	@ (10001238 <hardware_alarm_set_callback+0x7c>)
10001224:	701a      	strb	r2, [r3, #0]
10001226:	f7ff fa1f 	bl	10000668 <irq_remove_handler>
1000122a:	2100      	movs	r1, #0
1000122c:	0020      	movs	r0, r4
1000122e:	f7ff f9d7 	bl	100005e0 <irq_set_enabled>
10001232:	e7e5      	b.n	10001200 <hardware_alarm_set_callback+0x44>
10001234:	d0000128 	.word	0xd0000128
10001238:	1000104d 	.word	0x1000104d
1000123c:	40056038 	.word	0x40056038
10001240:	200004b4 	.word	0x200004b4
10001244:	2000064b 	.word	0x2000064b

10001248 <hardware_alarm_set_target>:
10001248:	b5f0      	push	{r4, r5, r6, r7, lr}
1000124a:	464f      	mov	r7, r9
1000124c:	46d6      	mov	lr, sl
1000124e:	4646      	mov	r6, r8
10001250:	b5c0      	push	{r6, r7, lr}
10001252:	0007      	movs	r7, r0
10001254:	4c2b      	ldr	r4, [pc, #172]	@ (10001304 <hardware_alarm_set_target+0xbc>)
10001256:	6a61      	ldr	r1, [r4, #36]	@ 0x24
10001258:	000d      	movs	r5, r1
1000125a:	6aa6      	ldr	r6, [r4, #40]	@ 0x28
1000125c:	6a61      	ldr	r1, [r4, #36]	@ 0x24
1000125e:	42a9      	cmp	r1, r5
10001260:	d1fa      	bne.n	10001258 <hardware_alarm_set_target+0x10>
10001262:	428b      	cmp	r3, r1
10001264:	d808      	bhi.n	10001278 <hardware_alarm_set_target+0x30>
10001266:	d005      	beq.n	10001274 <hardware_alarm_set_target+0x2c>
10001268:	2001      	movs	r0, #1
1000126a:	bce0      	pop	{r5, r6, r7}
1000126c:	46ba      	mov	sl, r7
1000126e:	46b1      	mov	r9, r6
10001270:	46a8      	mov	r8, r5
10001272:	bdf0      	pop	{r4, r5, r6, r7, pc}
10001274:	42b2      	cmp	r2, r6
10001276:	d9f7      	bls.n	10001268 <hardware_alarm_set_target+0x20>
10001278:	f3ef 8a10 	mrs	sl, PRIMASK
1000127c:	b672      	cpsid	i
1000127e:	4822      	ldr	r0, [pc, #136]	@ (10001308 <hardware_alarm_set_target+0xc0>)
10001280:	6801      	ldr	r1, [r0, #0]
10001282:	2900      	cmp	r1, #0
10001284:	d0fc      	beq.n	10001280 <hardware_alarm_set_target+0x38>
10001286:	f3bf 8f5f 	dmb	sy
1000128a:	2501      	movs	r5, #1
1000128c:	40bd      	lsls	r5, r7
1000128e:	491f      	ldr	r1, [pc, #124]	@ (1000130c <hardware_alarm_set_target+0xc4>)
10001290:	4c1c      	ldr	r4, [pc, #112]	@ (10001304 <hardware_alarm_set_target+0xbc>)
10001292:	4688      	mov	r8, r1
10001294:	7809      	ldrb	r1, [r1, #0]
10001296:	4689      	mov	r9, r1
10001298:	4329      	orrs	r1, r5
1000129a:	b2c9      	uxtb	r1, r1
1000129c:	468c      	mov	ip, r1
1000129e:	4641      	mov	r1, r8
100012a0:	4660      	mov	r0, ip
100012a2:	7008      	strb	r0, [r1, #0]
100012a4:	1d39      	adds	r1, r7, #4
100012a6:	0089      	lsls	r1, r1, #2
100012a8:	6365      	str	r5, [r4, #52]	@ 0x34
100012aa:	510a      	str	r2, [r1, r4]
100012ac:	4918      	ldr	r1, [pc, #96]	@ (10001310 <hardware_alarm_set_target+0xc8>)
100012ae:	00b8      	lsls	r0, r7, #2
100012b0:	5043      	str	r3, [r0, r1]
100012b2:	6a21      	ldr	r1, [r4, #32]
100012b4:	2000      	movs	r0, #0
100012b6:	4229      	tst	r1, r5
100012b8:	d019      	beq.n	100012ee <hardware_alarm_set_target+0xa6>
100012ba:	6a61      	ldr	r1, [r4, #36]	@ 0x24
100012bc:	0008      	movs	r0, r1
100012be:	6aa6      	ldr	r6, [r4, #40]	@ 0x28
100012c0:	6a61      	ldr	r1, [r4, #36]	@ 0x24
100012c2:	4281      	cmp	r1, r0
100012c4:	d1fa      	bne.n	100012bc <hardware_alarm_set_target+0x74>
100012c6:	428b      	cmp	r3, r1
100012c8:	d819      	bhi.n	100012fe <hardware_alarm_set_target+0xb6>
100012ca:	d101      	bne.n	100012d0 <hardware_alarm_set_target+0x88>
100012cc:	42b2      	cmp	r2, r6
100012ce:	d816      	bhi.n	100012fe <hardware_alarm_set_target+0xb6>
100012d0:	45cc      	cmp	ip, r9
100012d2:	d00b      	beq.n	100012ec <hardware_alarm_set_target+0xa4>
100012d4:	4b0b      	ldr	r3, [pc, #44]	@ (10001304 <hardware_alarm_set_target+0xbc>)
100012d6:	221f      	movs	r2, #31
100012d8:	621d      	str	r5, [r3, #32]
100012da:	635d      	str	r5, [r3, #52]	@ 0x34
100012dc:	2301      	movs	r3, #1
100012de:	403a      	ands	r2, r7
100012e0:	4093      	lsls	r3, r2
100012e2:	4a0c      	ldr	r2, [pc, #48]	@ (10001314 <hardware_alarm_set_target+0xcc>)
100012e4:	6013      	str	r3, [r2, #0]
100012e6:	4643      	mov	r3, r8
100012e8:	464a      	mov	r2, r9
100012ea:	701a      	strb	r2, [r3, #0]
100012ec:	2001      	movs	r0, #1
100012ee:	f3bf 8f5f 	dmb	sy
100012f2:	2200      	movs	r2, #0
100012f4:	4b04      	ldr	r3, [pc, #16]	@ (10001308 <hardware_alarm_set_target+0xc0>)
100012f6:	601a      	str	r2, [r3, #0]
100012f8:	f38a 8810 	msr	PRIMASK, sl
100012fc:	e7b5      	b.n	1000126a <hardware_alarm_set_target+0x22>
100012fe:	2000      	movs	r0, #0
10001300:	e7f5      	b.n	100012ee <hardware_alarm_set_target+0xa6>
10001302:	46c0      	nop			@ (mov r8, r8)
10001304:	40054000 	.word	0x40054000
10001308:	d0000128 	.word	0xd0000128
1000130c:	2000064b 	.word	0x2000064b
10001310:	20000630 	.word	0x20000630
10001314:	e000e280 	.word	0xe000e280

10001318 <hardware_alarm_cancel>:
10001318:	f3ef 8c10 	mrs	ip, PRIMASK
1000131c:	b672      	cpsid	i
1000131e:	490a      	ldr	r1, [pc, #40]	@ (10001348 <hardware_alarm_cancel+0x30>)
10001320:	680b      	ldr	r3, [r1, #0]
10001322:	2b00      	cmp	r3, #0
10001324:	d0fc      	beq.n	10001320 <hardware_alarm_cancel+0x8>
10001326:	f3bf 8f5f 	dmb	sy
1000132a:	2301      	movs	r3, #1
1000132c:	4083      	lsls	r3, r0
1000132e:	4a07      	ldr	r2, [pc, #28]	@ (1000134c <hardware_alarm_cancel+0x34>)
10001330:	4807      	ldr	r0, [pc, #28]	@ (10001350 <hardware_alarm_cancel+0x38>)
10001332:	6213      	str	r3, [r2, #32]
10001334:	7802      	ldrb	r2, [r0, #0]
10001336:	439a      	bics	r2, r3
10001338:	7002      	strb	r2, [r0, #0]
1000133a:	f3bf 8f5f 	dmb	sy
1000133e:	2300      	movs	r3, #0
10001340:	600b      	str	r3, [r1, #0]
10001342:	f38c 8810 	msr	PRIMASK, ip
10001346:	4770      	bx	lr
10001348:	d0000128 	.word	0xd0000128
1000134c:	40054000 	.word	0x40054000
10001350:	2000064b 	.word	0x2000064b

10001354 <ph_merge_nodes>:
10001354:	b570      	push	{r4, r5, r6, lr}
10001356:	0005      	movs	r5, r0
10001358:	000e      	movs	r6, r1
1000135a:	0014      	movs	r4, r2
1000135c:	2900      	cmp	r1, #0
1000135e:	d023      	beq.n	100013a8 <ph_merge_nodes+0x54>
10001360:	2a00      	cmp	r2, #0
10001362:	d012      	beq.n	1000138a <ph_merge_nodes+0x36>
10001364:	6880      	ldr	r0, [r0, #8]
10001366:	686b      	ldr	r3, [r5, #4]
10001368:	4798      	blx	r3
1000136a:	6829      	ldr	r1, [r5, #0]
1000136c:	2800      	cmp	r0, #0
1000136e:	d00e      	beq.n	1000138e <ph_merge_nodes+0x3a>
10001370:	0063      	lsls	r3, r4, #1
10001372:	191b      	adds	r3, r3, r4
10001374:	0072      	lsls	r2, r6, #1
10001376:	3b03      	subs	r3, #3
10001378:	1992      	adds	r2, r2, r6
1000137a:	18cb      	adds	r3, r1, r3
1000137c:	3a03      	subs	r2, #3
1000137e:	709e      	strb	r6, [r3, #2]
10001380:	1888      	adds	r0, r1, r2
10001382:	5c8a      	ldrb	r2, [r1, r2]
10001384:	2a00      	cmp	r2, #0
10001386:	d111      	bne.n	100013ac <ph_merge_nodes+0x58>
10001388:	7004      	strb	r4, [r0, #0]
1000138a:	0030      	movs	r0, r6
1000138c:	bd70      	pop	{r4, r5, r6, pc}
1000138e:	0073      	lsls	r3, r6, #1
10001390:	199b      	adds	r3, r3, r6
10001392:	0062      	lsls	r2, r4, #1
10001394:	3b03      	subs	r3, #3
10001396:	1912      	adds	r2, r2, r4
10001398:	18cb      	adds	r3, r1, r3
1000139a:	3a03      	subs	r2, #3
1000139c:	709c      	strb	r4, [r3, #2]
1000139e:	1888      	adds	r0, r1, r2
100013a0:	5c8a      	ldrb	r2, [r1, r2]
100013a2:	2a00      	cmp	r2, #0
100013a4:	d105      	bne.n	100013b2 <ph_merge_nodes+0x5e>
100013a6:	7006      	strb	r6, [r0, #0]
100013a8:	0020      	movs	r0, r4
100013aa:	e7ef      	b.n	1000138c <ph_merge_nodes+0x38>
100013ac:	705a      	strb	r2, [r3, #1]
100013ae:	7004      	strb	r4, [r0, #0]
100013b0:	e7eb      	b.n	1000138a <ph_merge_nodes+0x36>
100013b2:	705a      	strb	r2, [r3, #1]
100013b4:	7006      	strb	r6, [r0, #0]
100013b6:	e7f7      	b.n	100013a8 <ph_merge_nodes+0x54>

100013b8 <ph_post_alloc_init>:
100013b8:	b530      	push	{r4, r5, lr}
100013ba:	6083      	str	r3, [r0, #8]
100013bc:	2300      	movs	r3, #0
100013be:	b2cc      	uxtb	r4, r1
100013c0:	7343      	strb	r3, [r0, #13]
100013c2:	3301      	adds	r3, #1
100013c4:	7304      	strb	r4, [r0, #12]
100013c6:	6042      	str	r2, [r0, #4]
100013c8:	7383      	strb	r3, [r0, #14]
100013ca:	73c4      	strb	r4, [r0, #15]
100013cc:	000d      	movs	r5, r1
100013ce:	6800      	ldr	r0, [r0, #0]
100013d0:	2c01      	cmp	r4, #1
100013d2:	d906      	bls.n	100013e2 <ph_post_alloc_init+0x2a>
100013d4:	1c42      	adds	r2, r0, #1
100013d6:	3301      	adds	r3, #1
100013d8:	b2db      	uxtb	r3, r3
100013da:	7013      	strb	r3, [r2, #0]
100013dc:	3203      	adds	r2, #3
100013de:	429c      	cmp	r4, r3
100013e0:	d1f9      	bne.n	100013d6 <ph_post_alloc_init+0x1e>
100013e2:	21ff      	movs	r1, #255	@ 0xff
100013e4:	4029      	ands	r1, r5
100013e6:	004b      	lsls	r3, r1, #1
100013e8:	185b      	adds	r3, r3, r1
100013ea:	18c0      	adds	r0, r0, r3
100013ec:	2300      	movs	r3, #0
100013ee:	3803      	subs	r0, #3
100013f0:	7043      	strb	r3, [r0, #1]
100013f2:	bd30      	pop	{r4, r5, pc}

100013f4 <ph_merge_two_pass>:
100013f4:	b570      	push	{r4, r5, r6, lr}
100013f6:	0005      	movs	r5, r0
100013f8:	1e0c      	subs	r4, r1, #0
100013fa:	d007      	beq.n	1000140c <ph_merge_two_pass+0x18>
100013fc:	0063      	lsls	r3, r4, #1
100013fe:	6801      	ldr	r1, [r0, #0]
10001400:	191b      	adds	r3, r3, r4
10001402:	3b03      	subs	r3, #3
10001404:	18cb      	adds	r3, r1, r3
10001406:	785a      	ldrb	r2, [r3, #1]
10001408:	2a00      	cmp	r2, #0
1000140a:	d101      	bne.n	10001410 <ph_merge_two_pass+0x1c>
1000140c:	0020      	movs	r0, r4
1000140e:	bd70      	pop	{r4, r5, r6, pc}
10001410:	0050      	lsls	r0, r2, #1
10001412:	1880      	adds	r0, r0, r2
10001414:	3803      	subs	r0, #3
10001416:	1809      	adds	r1, r1, r0
10001418:	2000      	movs	r0, #0
1000141a:	784e      	ldrb	r6, [r1, #1]
1000141c:	7048      	strb	r0, [r1, #1]
1000141e:	0021      	movs	r1, r4
10001420:	7058      	strb	r0, [r3, #1]
10001422:	0028      	movs	r0, r5
10001424:	f7ff ff96 	bl	10001354 <ph_merge_nodes>
10001428:	0031      	movs	r1, r6
1000142a:	0004      	movs	r4, r0
1000142c:	0028      	movs	r0, r5
1000142e:	f7ff ffe1 	bl	100013f4 <ph_merge_two_pass>
10001432:	0006      	movs	r6, r0
10001434:	2c00      	cmp	r4, #0
10001436:	d026      	beq.n	10001486 <ph_merge_two_pass+0x92>
10001438:	2800      	cmp	r0, #0
1000143a:	d0e7      	beq.n	1000140c <ph_merge_two_pass+0x18>
1000143c:	0021      	movs	r1, r4
1000143e:	0032      	movs	r2, r6
10001440:	68a8      	ldr	r0, [r5, #8]
10001442:	686b      	ldr	r3, [r5, #4]
10001444:	4798      	blx	r3
10001446:	6829      	ldr	r1, [r5, #0]
10001448:	2800      	cmp	r0, #0
1000144a:	d00e      	beq.n	1000146a <ph_merge_two_pass+0x76>
1000144c:	0073      	lsls	r3, r6, #1
1000144e:	199b      	adds	r3, r3, r6
10001450:	0062      	lsls	r2, r4, #1
10001452:	3b03      	subs	r3, #3
10001454:	1912      	adds	r2, r2, r4
10001456:	18cb      	adds	r3, r1, r3
10001458:	3a03      	subs	r2, #3
1000145a:	709c      	strb	r4, [r3, #2]
1000145c:	1888      	adds	r0, r1, r2
1000145e:	5c8a      	ldrb	r2, [r1, r2]
10001460:	2a00      	cmp	r2, #0
10001462:	d000      	beq.n	10001466 <ph_merge_two_pass+0x72>
10001464:	705a      	strb	r2, [r3, #1]
10001466:	7006      	strb	r6, [r0, #0]
10001468:	e7d0      	b.n	1000140c <ph_merge_two_pass+0x18>
1000146a:	0063      	lsls	r3, r4, #1
1000146c:	191b      	adds	r3, r3, r4
1000146e:	0072      	lsls	r2, r6, #1
10001470:	3b03      	subs	r3, #3
10001472:	1992      	adds	r2, r2, r6
10001474:	18cb      	adds	r3, r1, r3
10001476:	3a03      	subs	r2, #3
10001478:	709e      	strb	r6, [r3, #2]
1000147a:	1888      	adds	r0, r1, r2
1000147c:	5c8a      	ldrb	r2, [r1, r2]
1000147e:	2a00      	cmp	r2, #0
10001480:	d000      	beq.n	10001484 <ph_merge_two_pass+0x90>
10001482:	705a      	strb	r2, [r3, #1]
10001484:	7004      	strb	r4, [r0, #0]
10001486:	0034      	movs	r4, r6
10001488:	e7c0      	b.n	1000140c <ph_merge_two_pass+0x18>
1000148a:	46c0      	nop			@ (mov r8, r8)

1000148c <ph_remove_any_head>:
1000148c:	b5f0      	push	{r4, r5, r6, r7, lr}
1000148e:	4657      	mov	r7, sl
10001490:	4645      	mov	r5, r8
10001492:	46de      	mov	lr, fp
10001494:	464e      	mov	r6, r9
10001496:	b5e0      	push	{r5, r6, r7, lr}
10001498:	000d      	movs	r5, r1
1000149a:	006f      	lsls	r7, r5, #1
1000149c:	6801      	ldr	r1, [r0, #0]
1000149e:	197f      	adds	r7, r7, r5
100014a0:	3f03      	subs	r7, #3
100014a2:	0004      	movs	r4, r0
100014a4:	5dc8      	ldrb	r0, [r1, r7]
100014a6:	b083      	sub	sp, #12
100014a8:	9201      	str	r2, [sp, #4]
100014aa:	19ca      	adds	r2, r1, r7
100014ac:	2800      	cmp	r0, #0
100014ae:	d050      	beq.n	10001552 <ph_remove_any_head+0xc6>
100014b0:	0043      	lsls	r3, r0, #1
100014b2:	181b      	adds	r3, r3, r0
100014b4:	3b03      	subs	r3, #3
100014b6:	18cb      	adds	r3, r1, r3
100014b8:	785e      	ldrb	r6, [r3, #1]
100014ba:	46b4      	mov	ip, r6
100014bc:	2e00      	cmp	r6, #0
100014be:	d11a      	bne.n	100014f6 <ph_remove_any_head+0x6a>
100014c0:	9e01      	ldr	r6, [sp, #4]
100014c2:	2e00      	cmp	r6, #0
100014c4:	d042      	beq.n	1000154c <ph_remove_any_head+0xc0>
100014c6:	7be6      	ldrb	r6, [r4, #15]
100014c8:	2e00      	cmp	r6, #0
100014ca:	d004      	beq.n	100014d6 <ph_remove_any_head+0x4a>
100014cc:	0073      	lsls	r3, r6, #1
100014ce:	199b      	adds	r3, r3, r6
100014d0:	18cb      	adds	r3, r1, r3
100014d2:	3b03      	subs	r3, #3
100014d4:	705d      	strb	r5, [r3, #1]
100014d6:	7ba3      	ldrb	r3, [r4, #14]
100014d8:	2b00      	cmp	r3, #0
100014da:	d100      	bne.n	100014de <ph_remove_any_head+0x52>
100014dc:	73a5      	strb	r5, [r4, #14]
100014de:	73e5      	strb	r5, [r4, #15]
100014e0:	2800      	cmp	r0, #0
100014e2:	d12f      	bne.n	10001544 <ph_remove_any_head+0xb8>
100014e4:	2300      	movs	r3, #0
100014e6:	7053      	strb	r3, [r2, #1]
100014e8:	b003      	add	sp, #12
100014ea:	bcf0      	pop	{r4, r5, r6, r7}
100014ec:	46bb      	mov	fp, r7
100014ee:	46b2      	mov	sl, r6
100014f0:	46a9      	mov	r9, r5
100014f2:	46a0      	mov	r8, r4
100014f4:	bdf0      	pop	{r4, r5, r6, r7, pc}
100014f6:	0072      	lsls	r2, r6, #1
100014f8:	4462      	add	r2, ip
100014fa:	3a03      	subs	r2, #3
100014fc:	188a      	adds	r2, r1, r2
100014fe:	7851      	ldrb	r1, [r2, #1]
10001500:	4688      	mov	r8, r1
10001502:	2100      	movs	r1, #0
10001504:	7051      	strb	r1, [r2, #1]
10001506:	4689      	mov	r9, r1
10001508:	7059      	strb	r1, [r3, #1]
1000150a:	0032      	movs	r2, r6
1000150c:	0001      	movs	r1, r0
1000150e:	0020      	movs	r0, r4
10001510:	f7ff ff20 	bl	10001354 <ph_merge_nodes>
10001514:	4643      	mov	r3, r8
10001516:	4682      	mov	sl, r0
10001518:	2b00      	cmp	r3, #0
1000151a:	d007      	beq.n	1000152c <ph_remove_any_head+0xa0>
1000151c:	005b      	lsls	r3, r3, #1
1000151e:	6821      	ldr	r1, [r4, #0]
10001520:	4443      	add	r3, r8
10001522:	3b03      	subs	r3, #3
10001524:	18cb      	adds	r3, r1, r3
10001526:	785a      	ldrb	r2, [r3, #1]
10001528:	2a00      	cmp	r2, #0
1000152a:	d116      	bne.n	1000155a <ph_remove_any_head+0xce>
1000152c:	4642      	mov	r2, r8
1000152e:	4651      	mov	r1, sl
10001530:	0020      	movs	r0, r4
10001532:	f7ff ff0f 	bl	10001354 <ph_merge_nodes>
10001536:	6821      	ldr	r1, [r4, #0]
10001538:	9b01      	ldr	r3, [sp, #4]
1000153a:	19ca      	adds	r2, r1, r7
1000153c:	2b00      	cmp	r3, #0
1000153e:	d1c2      	bne.n	100014c6 <ph_remove_any_head+0x3a>
10001540:	2800      	cmp	r0, #0
10001542:	d0cf      	beq.n	100014e4 <ph_remove_any_head+0x58>
10001544:	0043      	lsls	r3, r0, #1
10001546:	181b      	adds	r3, r3, r0
10001548:	3b03      	subs	r3, #3
1000154a:	18cb      	adds	r3, r1, r3
1000154c:	2100      	movs	r1, #0
1000154e:	7099      	strb	r1, [r3, #2]
10001550:	e7c8      	b.n	100014e4 <ph_remove_any_head+0x58>
10001552:	9b01      	ldr	r3, [sp, #4]
10001554:	2b00      	cmp	r3, #0
10001556:	d1b6      	bne.n	100014c6 <ph_remove_any_head+0x3a>
10001558:	e7c4      	b.n	100014e4 <ph_remove_any_head+0x58>
1000155a:	0050      	lsls	r0, r2, #1
1000155c:	1880      	adds	r0, r0, r2
1000155e:	3803      	subs	r0, #3
10001560:	1809      	adds	r1, r1, r0
10001562:	7848      	ldrb	r0, [r1, #1]
10001564:	4683      	mov	fp, r0
10001566:	4648      	mov	r0, r9
10001568:	7048      	strb	r0, [r1, #1]
1000156a:	7058      	strb	r0, [r3, #1]
1000156c:	4641      	mov	r1, r8
1000156e:	0020      	movs	r0, r4
10001570:	f7ff fef0 	bl	10001354 <ph_merge_nodes>
10001574:	4659      	mov	r1, fp
10001576:	4680      	mov	r8, r0
10001578:	0020      	movs	r0, r4
1000157a:	f7ff ff3b 	bl	100013f4 <ph_merge_two_pass>
1000157e:	4641      	mov	r1, r8
10001580:	0002      	movs	r2, r0
10001582:	0020      	movs	r0, r4
10001584:	f7ff fee6 	bl	10001354 <ph_merge_nodes>
10001588:	4680      	mov	r8, r0
1000158a:	e7cf      	b.n	1000152c <ph_remove_any_head+0xa0>

1000158c <ph_remove_head>:
1000158c:	b5f0      	push	{r4, r5, r6, r7, lr}
1000158e:	4657      	mov	r7, sl
10001590:	4645      	mov	r5, r8
10001592:	46de      	mov	lr, fp
10001594:	464e      	mov	r6, r9
10001596:	b5e0      	push	{r5, r6, r7, lr}
10001598:	b083      	sub	sp, #12
1000159a:	9101      	str	r1, [sp, #4]
1000159c:	7b45      	ldrb	r5, [r0, #13]
1000159e:	0004      	movs	r4, r0
100015a0:	006f      	lsls	r7, r5, #1
100015a2:	6800      	ldr	r0, [r0, #0]
100015a4:	197f      	adds	r7, r7, r5
100015a6:	3f03      	subs	r7, #3
100015a8:	5dc1      	ldrb	r1, [r0, r7]
100015aa:	19c2      	adds	r2, r0, r7
100015ac:	2900      	cmp	r1, #0
100015ae:	d052      	beq.n	10001656 <ph_remove_head+0xca>
100015b0:	004b      	lsls	r3, r1, #1
100015b2:	185b      	adds	r3, r3, r1
100015b4:	3b03      	subs	r3, #3
100015b6:	18c3      	adds	r3, r0, r3
100015b8:	785e      	ldrb	r6, [r3, #1]
100015ba:	46b4      	mov	ip, r6
100015bc:	2e00      	cmp	r6, #0
100015be:	d11c      	bne.n	100015fa <ph_remove_head+0x6e>
100015c0:	9e01      	ldr	r6, [sp, #4]
100015c2:	2e00      	cmp	r6, #0
100015c4:	d044      	beq.n	10001650 <ph_remove_head+0xc4>
100015c6:	7be6      	ldrb	r6, [r4, #15]
100015c8:	2e00      	cmp	r6, #0
100015ca:	d004      	beq.n	100015d6 <ph_remove_head+0x4a>
100015cc:	0073      	lsls	r3, r6, #1
100015ce:	199b      	adds	r3, r3, r6
100015d0:	18c3      	adds	r3, r0, r3
100015d2:	3b03      	subs	r3, #3
100015d4:	705d      	strb	r5, [r3, #1]
100015d6:	7ba3      	ldrb	r3, [r4, #14]
100015d8:	2b00      	cmp	r3, #0
100015da:	d100      	bne.n	100015de <ph_remove_head+0x52>
100015dc:	73a5      	strb	r5, [r4, #14]
100015de:	73e5      	strb	r5, [r4, #15]
100015e0:	2900      	cmp	r1, #0
100015e2:	d131      	bne.n	10001648 <ph_remove_head+0xbc>
100015e4:	2300      	movs	r3, #0
100015e6:	0028      	movs	r0, r5
100015e8:	7053      	strb	r3, [r2, #1]
100015ea:	7361      	strb	r1, [r4, #13]
100015ec:	b003      	add	sp, #12
100015ee:	bcf0      	pop	{r4, r5, r6, r7}
100015f0:	46bb      	mov	fp, r7
100015f2:	46b2      	mov	sl, r6
100015f4:	46a9      	mov	r9, r5
100015f6:	46a0      	mov	r8, r4
100015f8:	bdf0      	pop	{r4, r5, r6, r7, pc}
100015fa:	0072      	lsls	r2, r6, #1
100015fc:	4462      	add	r2, ip
100015fe:	3a03      	subs	r2, #3
10001600:	1882      	adds	r2, r0, r2
10001602:	7850      	ldrb	r0, [r2, #1]
10001604:	4680      	mov	r8, r0
10001606:	2000      	movs	r0, #0
10001608:	7050      	strb	r0, [r2, #1]
1000160a:	4681      	mov	r9, r0
1000160c:	7058      	strb	r0, [r3, #1]
1000160e:	0032      	movs	r2, r6
10001610:	0020      	movs	r0, r4
10001612:	f7ff fe9f 	bl	10001354 <ph_merge_nodes>
10001616:	4643      	mov	r3, r8
10001618:	4682      	mov	sl, r0
1000161a:	2b00      	cmp	r3, #0
1000161c:	d007      	beq.n	1000162e <ph_remove_head+0xa2>
1000161e:	005b      	lsls	r3, r3, #1
10001620:	6821      	ldr	r1, [r4, #0]
10001622:	4443      	add	r3, r8
10001624:	3b03      	subs	r3, #3
10001626:	18cb      	adds	r3, r1, r3
10001628:	785a      	ldrb	r2, [r3, #1]
1000162a:	2a00      	cmp	r2, #0
1000162c:	d117      	bne.n	1000165e <ph_remove_head+0xd2>
1000162e:	4642      	mov	r2, r8
10001630:	4651      	mov	r1, sl
10001632:	0020      	movs	r0, r4
10001634:	f7ff fe8e 	bl	10001354 <ph_merge_nodes>
10001638:	9b01      	ldr	r3, [sp, #4]
1000163a:	0001      	movs	r1, r0
1000163c:	6820      	ldr	r0, [r4, #0]
1000163e:	19c2      	adds	r2, r0, r7
10001640:	2b00      	cmp	r3, #0
10001642:	d1c0      	bne.n	100015c6 <ph_remove_head+0x3a>
10001644:	2900      	cmp	r1, #0
10001646:	d0cd      	beq.n	100015e4 <ph_remove_head+0x58>
10001648:	004b      	lsls	r3, r1, #1
1000164a:	185b      	adds	r3, r3, r1
1000164c:	3b03      	subs	r3, #3
1000164e:	18c3      	adds	r3, r0, r3
10001650:	2000      	movs	r0, #0
10001652:	7098      	strb	r0, [r3, #2]
10001654:	e7c6      	b.n	100015e4 <ph_remove_head+0x58>
10001656:	9b01      	ldr	r3, [sp, #4]
10001658:	2b00      	cmp	r3, #0
1000165a:	d1b4      	bne.n	100015c6 <ph_remove_head+0x3a>
1000165c:	e7c2      	b.n	100015e4 <ph_remove_head+0x58>
1000165e:	0050      	lsls	r0, r2, #1
10001660:	1880      	adds	r0, r0, r2
10001662:	3803      	subs	r0, #3
10001664:	1809      	adds	r1, r1, r0
10001666:	7848      	ldrb	r0, [r1, #1]
10001668:	4683      	mov	fp, r0
1000166a:	4648      	mov	r0, r9
1000166c:	7048      	strb	r0, [r1, #1]
1000166e:	7058      	strb	r0, [r3, #1]
10001670:	4641      	mov	r1, r8
10001672:	0020      	movs	r0, r4
10001674:	f7ff fe6e 	bl	10001354 <ph_merge_nodes>
10001678:	4659      	mov	r1, fp
1000167a:	4680      	mov	r8, r0
1000167c:	0020      	movs	r0, r4
1000167e:	f7ff feb9 	bl	100013f4 <ph_merge_two_pass>
10001682:	4641      	mov	r1, r8
10001684:	0002      	movs	r2, r0
10001686:	0020      	movs	r0, r4
10001688:	f7ff fe64 	bl	10001354 <ph_merge_nodes>
1000168c:	4680      	mov	r8, r0
1000168e:	e7ce      	b.n	1000162e <ph_remove_head+0xa2>

10001690 <ph_remove_and_free_node>:
10001690:	b570      	push	{r4, r5, r6, lr}
10001692:	0005      	movs	r5, r0
10001694:	2900      	cmp	r1, #0
10001696:	d02c      	beq.n	100016f2 <ph_remove_and_free_node+0x62>
10001698:	7b43      	ldrb	r3, [r0, #13]
1000169a:	428b      	cmp	r3, r1
1000169c:	d02e      	beq.n	100016fc <ph_remove_and_free_node+0x6c>
1000169e:	004c      	lsls	r4, r1, #1
100016a0:	6800      	ldr	r0, [r0, #0]
100016a2:	1864      	adds	r4, r4, r1
100016a4:	3c03      	subs	r4, #3
100016a6:	1904      	adds	r4, r0, r4
100016a8:	78a2      	ldrb	r2, [r4, #2]
100016aa:	2a00      	cmp	r2, #0
100016ac:	d021      	beq.n	100016f2 <ph_remove_and_free_node+0x62>
100016ae:	0053      	lsls	r3, r2, #1
100016b0:	189b      	adds	r3, r3, r2
100016b2:	3b03      	subs	r3, #3
100016b4:	5cc2      	ldrb	r2, [r0, r3]
100016b6:	18c6      	adds	r6, r0, r3
100016b8:	428a      	cmp	r2, r1
100016ba:	d102      	bne.n	100016c2 <ph_remove_and_free_node+0x32>
100016bc:	e01b      	b.n	100016f6 <ph_remove_and_free_node+0x66>
100016be:	2a00      	cmp	r2, #0
100016c0:	d008      	beq.n	100016d4 <ph_remove_and_free_node+0x44>
100016c2:	0053      	lsls	r3, r2, #1
100016c4:	189b      	adds	r3, r3, r2
100016c6:	3b03      	subs	r3, #3
100016c8:	18c3      	adds	r3, r0, r3
100016ca:	785a      	ldrb	r2, [r3, #1]
100016cc:	428a      	cmp	r2, r1
100016ce:	d1f6      	bne.n	100016be <ph_remove_and_free_node+0x2e>
100016d0:	7862      	ldrb	r2, [r4, #1]
100016d2:	705a      	strb	r2, [r3, #1]
100016d4:	2300      	movs	r3, #0
100016d6:	2201      	movs	r2, #1
100016d8:	0028      	movs	r0, r5
100016da:	70a3      	strb	r3, [r4, #2]
100016dc:	7063      	strb	r3, [r4, #1]
100016de:	f7ff fed5 	bl	1000148c <ph_remove_any_head>
100016e2:	7b69      	ldrb	r1, [r5, #13]
100016e4:	0002      	movs	r2, r0
100016e6:	0028      	movs	r0, r5
100016e8:	f7ff fe34 	bl	10001354 <ph_merge_nodes>
100016ec:	7368      	strb	r0, [r5, #13]
100016ee:	2001      	movs	r0, #1
100016f0:	e000      	b.n	100016f4 <ph_remove_and_free_node+0x64>
100016f2:	2000      	movs	r0, #0
100016f4:	bd70      	pop	{r4, r5, r6, pc}
100016f6:	7863      	ldrb	r3, [r4, #1]
100016f8:	7033      	strb	r3, [r6, #0]
100016fa:	e7eb      	b.n	100016d4 <ph_remove_and_free_node+0x44>
100016fc:	2201      	movs	r2, #1
100016fe:	0019      	movs	r1, r3
10001700:	f7ff fec4 	bl	1000148c <ph_remove_any_head>
10001704:	e7f2      	b.n	100016ec <ph_remove_and_free_node+0x5c>
10001706:	46c0      	nop			@ (mov r8, r8)

10001708 <uart_init>:
10001708:	b5f8      	push	{r3, r4, r5, r6, r7, lr}
1000170a:	46ce      	mov	lr, r9
1000170c:	4647      	mov	r7, r8
1000170e:	0004      	movs	r4, r0
10001710:	b580      	push	{r7, lr}
10001712:	2006      	movs	r0, #6
10001714:	000e      	movs	r6, r1
10001716:	f000 fa1f 	bl	10001b58 <clock_get_hz>
1000171a:	1e05      	subs	r5, r0, #0
1000171c:	d051      	beq.n	100017c2 <uart_init+0xba>
1000171e:	4b52      	ldr	r3, [pc, #328]	@ (10001868 <uart_init+0x160>)
10001720:	4952      	ldr	r1, [pc, #328]	@ (1000186c <uart_init+0x164>)
10001722:	18e2      	adds	r2, r4, r3
10001724:	4253      	negs	r3, r2
10001726:	415a      	adcs	r2, r3
10001728:	2380      	movs	r3, #128	@ 0x80
1000172a:	03db      	lsls	r3, r3, #15
1000172c:	469c      	mov	ip, r3
1000172e:	0592      	lsls	r2, r2, #22
10001730:	4b4f      	ldr	r3, [pc, #316]	@ (10001870 <uart_init+0x168>)
10001732:	4462      	add	r2, ip
10001734:	601a      	str	r2, [r3, #0]
10001736:	4b4f      	ldr	r3, [pc, #316]	@ (10001874 <uart_init+0x16c>)
10001738:	601a      	str	r2, [r3, #0]
1000173a:	0010      	movs	r0, r2
1000173c:	688b      	ldr	r3, [r1, #8]
1000173e:	4398      	bics	r0, r3
10001740:	d1fb      	bne.n	1000173a <uart_init+0x32>
10001742:	4b49      	ldr	r3, [pc, #292]	@ (10001868 <uart_init+0x160>)
10001744:	4a4c      	ldr	r2, [pc, #304]	@ (10001878 <uart_init+0x170>)
10001746:	18e3      	adds	r3, r4, r3
10001748:	4259      	negs	r1, r3
1000174a:	414b      	adcs	r3, r1
1000174c:	2180      	movs	r1, #128	@ 0x80
1000174e:	005b      	lsls	r3, r3, #1
10001750:	0049      	lsls	r1, r1, #1
10001752:	2006      	movs	r0, #6
10001754:	5299      	strh	r1, [r3, r2]
10001756:	f000 f9ff 	bl	10001b58 <clock_get_hz>
1000175a:	0031      	movs	r1, r6
1000175c:	00c0      	lsls	r0, r0, #3
1000175e:	f001 fe85 	bl	1000346c <__wrap___aeabi_uidiv>
10001762:	09c3      	lsrs	r3, r0, #7
10001764:	d132      	bne.n	100017cc <uart_init+0xc4>
10001766:	2240      	movs	r2, #64	@ 0x40
10001768:	2101      	movs	r1, #1
1000176a:	4690      	mov	r8, r2
1000176c:	6261      	str	r1, [r4, #36]	@ 0x24
1000176e:	62a3      	str	r3, [r4, #40]	@ 0x28
10001770:	6b25      	ldr	r5, [r4, #48]	@ 0x30
10001772:	07eb      	lsls	r3, r5, #31
10001774:	d436      	bmi.n	100017e4 <uart_init+0xdc>
10001776:	0027      	movs	r7, r4
10001778:	2680      	movs	r6, #128	@ 0x80
1000177a:	6ae3      	ldr	r3, [r4, #44]	@ 0x2c
1000177c:	2300      	movs	r3, #0
1000177e:	372c      	adds	r7, #44	@ 0x2c
10001780:	0176      	lsls	r6, r6, #5
10001782:	433e      	orrs	r6, r7
10001784:	6033      	str	r3, [r6, #0]
10001786:	2006      	movs	r0, #6
10001788:	6325      	str	r5, [r4, #48]	@ 0x30
1000178a:	f000 f9e5 	bl	10001b58 <clock_get_hz>
1000178e:	4641      	mov	r1, r8
10001790:	0080      	lsls	r0, r0, #2
10001792:	f001 fe6b 	bl	1000346c <__wrap___aeabi_uidiv>
10001796:	6b23      	ldr	r3, [r4, #48]	@ 0x30
10001798:	0005      	movs	r5, r0
1000179a:	4698      	mov	r8, r3
1000179c:	07db      	lsls	r3, r3, #31
1000179e:	d43b      	bmi.n	10001818 <uart_init+0x110>
100017a0:	2360      	movs	r3, #96	@ 0x60
100017a2:	6ae2      	ldr	r2, [r4, #44]	@ 0x2c
100017a4:	405a      	eors	r2, r3
100017a6:	330e      	adds	r3, #14
100017a8:	4013      	ands	r3, r2
100017aa:	6033      	str	r3, [r6, #0]
100017ac:	4643      	mov	r3, r8
100017ae:	6323      	str	r3, [r4, #48]	@ 0x30
100017b0:	2380      	movs	r3, #128	@ 0x80
100017b2:	2210      	movs	r2, #16
100017b4:	019b      	lsls	r3, r3, #6
100017b6:	433b      	orrs	r3, r7
100017b8:	601a      	str	r2, [r3, #0]
100017ba:	4b30      	ldr	r3, [pc, #192]	@ (1000187c <uart_init+0x174>)
100017bc:	6323      	str	r3, [r4, #48]	@ 0x30
100017be:	2303      	movs	r3, #3
100017c0:	64a3      	str	r3, [r4, #72]	@ 0x48
100017c2:	0028      	movs	r0, r5
100017c4:	bcc0      	pop	{r6, r7}
100017c6:	46b9      	mov	r9, r7
100017c8:	46b0      	mov	r8, r6
100017ca:	bdf8      	pop	{r3, r4, r5, r6, r7, pc}
100017cc:	4a2c      	ldr	r2, [pc, #176]	@ (10001880 <uart_init+0x178>)
100017ce:	4293      	cmp	r3, r2
100017d0:	d93f      	bls.n	10001852 <uart_init+0x14a>
100017d2:	2300      	movs	r3, #0
100017d4:	492b      	ldr	r1, [pc, #172]	@ (10001884 <uart_init+0x17c>)
100017d6:	4a2c      	ldr	r2, [pc, #176]	@ (10001888 <uart_init+0x180>)
100017d8:	6261      	str	r1, [r4, #36]	@ 0x24
100017da:	62a3      	str	r3, [r4, #40]	@ 0x28
100017dc:	6b25      	ldr	r5, [r4, #48]	@ 0x30
100017de:	4690      	mov	r8, r2
100017e0:	07eb      	lsls	r3, r5, #31
100017e2:	d5c8      	bpl.n	10001776 <uart_init+0x6e>
100017e4:	0022      	movs	r2, r4
100017e6:	23c0      	movs	r3, #192	@ 0xc0
100017e8:	3230      	adds	r2, #48	@ 0x30
100017ea:	019b      	lsls	r3, r3, #6
100017ec:	4313      	orrs	r3, r2
100017ee:	4a23      	ldr	r2, [pc, #140]	@ (1000187c <uart_init+0x174>)
100017f0:	2006      	movs	r0, #6
100017f2:	601a      	str	r2, [r3, #0]
100017f4:	6a66      	ldr	r6, [r4, #36]	@ 0x24
100017f6:	6aa3      	ldr	r3, [r4, #40]	@ 0x28
100017f8:	01b6      	lsls	r6, r6, #6
100017fa:	18f6      	adds	r6, r6, r3
100017fc:	f000 f9ac 	bl	10001b58 <clock_get_hz>
10001800:	4922      	ldr	r1, [pc, #136]	@ (1000188c <uart_init+0x184>)
10001802:	f001 fe33 	bl	1000346c <__wrap___aeabi_uidiv>
10001806:	02b6      	lsls	r6, r6, #10
10001808:	0001      	movs	r1, r0
1000180a:	0030      	movs	r0, r6
1000180c:	f001 fe2e 	bl	1000346c <__wrap___aeabi_uidiv>
10001810:	2100      	movs	r1, #0
10001812:	f7ff fc8f 	bl	10001134 <busy_wait_us>
10001816:	e7ae      	b.n	10001776 <uart_init+0x6e>
10001818:	0022      	movs	r2, r4
1000181a:	23c0      	movs	r3, #192	@ 0xc0
1000181c:	3230      	adds	r2, #48	@ 0x30
1000181e:	019b      	lsls	r3, r3, #6
10001820:	4313      	orrs	r3, r2
10001822:	4a16      	ldr	r2, [pc, #88]	@ (1000187c <uart_init+0x174>)
10001824:	2006      	movs	r0, #6
10001826:	601a      	str	r2, [r3, #0]
10001828:	6a63      	ldr	r3, [r4, #36]	@ 0x24
1000182a:	6aa2      	ldr	r2, [r4, #40]	@ 0x28
1000182c:	019b      	lsls	r3, r3, #6
1000182e:	4699      	mov	r9, r3
10001830:	4491      	add	r9, r2
10001832:	f000 f991 	bl	10001b58 <clock_get_hz>
10001836:	464b      	mov	r3, r9
10001838:	4914      	ldr	r1, [pc, #80]	@ (1000188c <uart_init+0x184>)
1000183a:	029b      	lsls	r3, r3, #10
1000183c:	4699      	mov	r9, r3
1000183e:	f001 fe15 	bl	1000346c <__wrap___aeabi_uidiv>
10001842:	0001      	movs	r1, r0
10001844:	4648      	mov	r0, r9
10001846:	f001 fe11 	bl	1000346c <__wrap___aeabi_uidiv>
1000184a:	2100      	movs	r1, #0
1000184c:	f7ff fc72 	bl	10001134 <busy_wait_us>
10001850:	e7a6      	b.n	100017a0 <uart_init+0x98>
10001852:	227f      	movs	r2, #127	@ 0x7f
10001854:	0199      	lsls	r1, r3, #6
10001856:	4688      	mov	r8, r1
10001858:	4002      	ands	r2, r0
1000185a:	3201      	adds	r2, #1
1000185c:	0852      	lsrs	r2, r2, #1
1000185e:	0019      	movs	r1, r3
10001860:	4490      	add	r8, r2
10001862:	0013      	movs	r3, r2
10001864:	e782      	b.n	1000176c <uart_init+0x64>
10001866:	46c0      	nop			@ (mov r8, r8)
10001868:	bffc8000 	.word	0xbffc8000
1000186c:	4000c000 	.word	0x4000c000
10001870:	4000e000 	.word	0x4000e000
10001874:	4000f000 	.word	0x4000f000
10001878:	20000640 	.word	0x20000640
1000187c:	00000301 	.word	0x00000301
10001880:	0000fffe 	.word	0x0000fffe
10001884:	0000ffff 	.word	0x0000ffff
10001888:	003fffc0 	.word	0x003fffc0
1000188c:	00000e4e 	.word	0x00000e4e

10001890 <clocks_init>:
10001890:	b510      	push	{r4, lr}
10001892:	200c      	movs	r0, #12
10001894:	b082      	sub	sp, #8
10001896:	f000 f9b5 	bl	10001c04 <watchdog_start_tick>
1000189a:	f7fe fdf9 	bl	10000490 <running_on_fpga>
1000189e:	2800      	cmp	r0, #0
100018a0:	d010      	beq.n	100018c4 <clocks_init+0x34>
100018a2:	4b8b      	ldr	r3, [pc, #556]	@ (10001ad0 <clocks_init+0x240>)
100018a4:	488b      	ldr	r0, [pc, #556]	@ (10001ad4 <clocks_init+0x244>)
100018a6:	498b      	ldr	r1, [pc, #556]	@ (10001ad4 <clocks_init+0x244>)
100018a8:	4a8b      	ldr	r2, [pc, #556]	@ (10001ad8 <clocks_init+0x248>)
100018aa:	6018      	str	r0, [r3, #0]
100018ac:	6059      	str	r1, [r3, #4]
100018ae:	6098      	str	r0, [r3, #8]
100018b0:	60d9      	str	r1, [r3, #12]
100018b2:	6118      	str	r0, [r3, #16]
100018b4:	6159      	str	r1, [r3, #20]
100018b6:	6198      	str	r0, [r3, #24]
100018b8:	61d9      	str	r1, [r3, #28]
100018ba:	6218      	str	r0, [r3, #32]
100018bc:	6259      	str	r1, [r3, #36]	@ 0x24
100018be:	625a      	str	r2, [r3, #36]	@ 0x24
100018c0:	b002      	add	sp, #8
100018c2:	bd10      	pop	{r4, pc}
100018c4:	4c85      	ldr	r4, [pc, #532]	@ (10001adc <clocks_init+0x24c>)
100018c6:	67a0      	str	r0, [r4, #120]	@ 0x78
100018c8:	f000 f9a4 	bl	10001c14 <xosc_init>
100018cc:	2201      	movs	r2, #1
100018ce:	4b84      	ldr	r3, [pc, #528]	@ (10001ae0 <clocks_init+0x250>)
100018d0:	601a      	str	r2, [r3, #0]
100018d2:	6c63      	ldr	r3, [r4, #68]	@ 0x44
100018d4:	2b01      	cmp	r3, #1
100018d6:	d1fc      	bne.n	100018d2 <clocks_init+0x42>
100018d8:	2203      	movs	r2, #3
100018da:	4b82      	ldr	r3, [pc, #520]	@ (10001ae4 <clocks_init+0x254>)
100018dc:	601a      	str	r2, [r3, #0]
100018de:	4a7f      	ldr	r2, [pc, #508]	@ (10001adc <clocks_init+0x24c>)
100018e0:	6b93      	ldr	r3, [r2, #56]	@ 0x38
100018e2:	2b01      	cmp	r3, #1
100018e4:	d1fc      	bne.n	100018e0 <clocks_init+0x50>
100018e6:	3301      	adds	r3, #1
100018e8:	2101      	movs	r1, #1
100018ea:	4a7f      	ldr	r2, [pc, #508]	@ (10001ae8 <clocks_init+0x258>)
100018ec:	487f      	ldr	r0, [pc, #508]	@ (10001aec <clocks_init+0x25c>)
100018ee:	9300      	str	r3, [sp, #0]
100018f0:	3304      	adds	r3, #4
100018f2:	f000 f937 	bl	10001b64 <pll_init>
100018f6:	2305      	movs	r3, #5
100018f8:	4a7d      	ldr	r2, [pc, #500]	@ (10001af0 <clocks_init+0x260>)
100018fa:	9300      	str	r3, [sp, #0]
100018fc:	2101      	movs	r1, #1
100018fe:	487d      	ldr	r0, [pc, #500]	@ (10001af4 <clocks_init+0x264>)
10001900:	f000 f930 	bl	10001b64 <pll_init>
10001904:	4b7c      	ldr	r3, [pc, #496]	@ (10001af8 <clocks_init+0x268>)
10001906:	685a      	ldr	r2, [r3, #4]
10001908:	2aff      	cmp	r2, #255	@ 0xff
1000190a:	d802      	bhi.n	10001912 <clocks_init+0x82>
1000190c:	2280      	movs	r2, #128	@ 0x80
1000190e:	0052      	lsls	r2, r2, #1
10001910:	605a      	str	r2, [r3, #4]
10001912:	2280      	movs	r2, #128	@ 0x80
10001914:	4b73      	ldr	r3, [pc, #460]	@ (10001ae4 <clocks_init+0x254>)
10001916:	4c6e      	ldr	r4, [pc, #440]	@ (10001ad0 <clocks_init+0x240>)
10001918:	0112      	lsls	r2, r2, #4
1000191a:	601a      	str	r2, [r3, #0]
1000191c:	6921      	ldr	r1, [r4, #16]
1000191e:	2900      	cmp	r1, #0
10001920:	d007      	beq.n	10001932 <clocks_init+0xa2>
10001922:	6960      	ldr	r0, [r4, #20]
10001924:	f001 fda2 	bl	1000346c <__wrap___aeabi_uidiv>
10001928:	3001      	adds	r0, #1
1000192a:	0043      	lsls	r3, r0, #1
1000192c:	181b      	adds	r3, r3, r0
1000192e:	3b03      	subs	r3, #3
10001930:	d2fd      	bcs.n	1000192e <clocks_init+0x9e>
10001932:	22e0      	movs	r2, #224	@ 0xe0
10001934:	4b70      	ldr	r3, [pc, #448]	@ (10001af8 <clocks_init+0x268>)
10001936:	4871      	ldr	r0, [pc, #452]	@ (10001afc <clocks_init+0x26c>)
10001938:	6819      	ldr	r1, [r3, #0]
1000193a:	400a      	ands	r2, r1
1000193c:	6002      	str	r2, [r0, #0]
1000193e:	2202      	movs	r2, #2
10001940:	6819      	ldr	r1, [r3, #0]
10001942:	4051      	eors	r1, r2
10001944:	3201      	adds	r2, #1
10001946:	400a      	ands	r2, r1
10001948:	2104      	movs	r1, #4
1000194a:	6002      	str	r2, [r0, #0]
1000194c:	689a      	ldr	r2, [r3, #8]
1000194e:	4211      	tst	r1, r2
10001950:	d0fc      	beq.n	1000194c <clocks_init+0xbc>
10001952:	2180      	movs	r1, #128	@ 0x80
10001954:	4a6a      	ldr	r2, [pc, #424]	@ (10001b00 <clocks_init+0x270>)
10001956:	0109      	lsls	r1, r1, #4
10001958:	6011      	str	r1, [r2, #0]
1000195a:	2280      	movs	r2, #128	@ 0x80
1000195c:	0052      	lsls	r2, r2, #1
1000195e:	605a      	str	r2, [r3, #4]
10001960:	4b68      	ldr	r3, [pc, #416]	@ (10001b04 <clocks_init+0x274>)
10001962:	6123      	str	r3, [r4, #16]
10001964:	4b68      	ldr	r3, [pc, #416]	@ (10001b08 <clocks_init+0x278>)
10001966:	6859      	ldr	r1, [r3, #4]
10001968:	29ff      	cmp	r1, #255	@ 0xff
1000196a:	d800      	bhi.n	1000196e <clocks_init+0xde>
1000196c:	605a      	str	r2, [r3, #4]
1000196e:	2203      	movs	r2, #3
10001970:	2101      	movs	r1, #1
10001972:	4b5b      	ldr	r3, [pc, #364]	@ (10001ae0 <clocks_init+0x250>)
10001974:	601a      	str	r2, [r3, #0]
10001976:	4a64      	ldr	r2, [pc, #400]	@ (10001b08 <clocks_init+0x278>)
10001978:	6893      	ldr	r3, [r2, #8]
1000197a:	4219      	tst	r1, r3
1000197c:	d0fc      	beq.n	10001978 <clocks_init+0xe8>
1000197e:	23e0      	movs	r3, #224	@ 0xe0
10001980:	6810      	ldr	r0, [r2, #0]
10001982:	4003      	ands	r3, r0
10001984:	4861      	ldr	r0, [pc, #388]	@ (10001b0c <clocks_init+0x27c>)
10001986:	6003      	str	r3, [r0, #0]
10001988:	6812      	ldr	r2, [r2, #0]
1000198a:	2303      	movs	r3, #3
1000198c:	404a      	eors	r2, r1
1000198e:	2102      	movs	r1, #2
10001990:	4013      	ands	r3, r2
10001992:	4a5d      	ldr	r2, [pc, #372]	@ (10001b08 <clocks_init+0x278>)
10001994:	6003      	str	r3, [r0, #0]
10001996:	6893      	ldr	r3, [r2, #8]
10001998:	4219      	tst	r1, r3
1000199a:	d0fc      	beq.n	10001996 <clocks_init+0x106>
1000199c:	2180      	movs	r1, #128	@ 0x80
1000199e:	4b5c      	ldr	r3, [pc, #368]	@ (10001b10 <clocks_init+0x280>)
100019a0:	0109      	lsls	r1, r1, #4
100019a2:	6019      	str	r1, [r3, #0]
100019a4:	2180      	movs	r1, #128	@ 0x80
100019a6:	4b5b      	ldr	r3, [pc, #364]	@ (10001b14 <clocks_init+0x284>)
100019a8:	0049      	lsls	r1, r1, #1
100019aa:	6051      	str	r1, [r2, #4]
100019ac:	6163      	str	r3, [r4, #20]
100019ae:	4b5a      	ldr	r3, [pc, #360]	@ (10001b18 <clocks_init+0x288>)
100019b0:	685a      	ldr	r2, [r3, #4]
100019b2:	2aff      	cmp	r2, #255	@ 0xff
100019b4:	d800      	bhi.n	100019b8 <clocks_init+0x128>
100019b6:	6059      	str	r1, [r3, #4]
100019b8:	2280      	movs	r2, #128	@ 0x80
100019ba:	4b58      	ldr	r3, [pc, #352]	@ (10001b1c <clocks_init+0x28c>)
100019bc:	0112      	lsls	r2, r2, #4
100019be:	601a      	str	r2, [r3, #0]
100019c0:	69e1      	ldr	r1, [r4, #28]
100019c2:	2900      	cmp	r1, #0
100019c4:	d007      	beq.n	100019d6 <clocks_init+0x146>
100019c6:	6960      	ldr	r0, [r4, #20]
100019c8:	f001 fd50 	bl	1000346c <__wrap___aeabi_uidiv>
100019cc:	3001      	adds	r0, #1
100019ce:	0043      	lsls	r3, r0, #1
100019d0:	181b      	adds	r3, r3, r0
100019d2:	3b03      	subs	r3, #3
100019d4:	d2fd      	bcs.n	100019d2 <clocks_init+0x142>
100019d6:	23e0      	movs	r3, #224	@ 0xe0
100019d8:	4a4f      	ldr	r2, [pc, #316]	@ (10001b18 <clocks_init+0x288>)
100019da:	6811      	ldr	r1, [r2, #0]
100019dc:	400b      	ands	r3, r1
100019de:	4950      	ldr	r1, [pc, #320]	@ (10001b20 <clocks_init+0x290>)
100019e0:	600b      	str	r3, [r1, #0]
100019e2:	2180      	movs	r1, #128	@ 0x80
100019e4:	4b4f      	ldr	r3, [pc, #316]	@ (10001b24 <clocks_init+0x294>)
100019e6:	0109      	lsls	r1, r1, #4
100019e8:	6019      	str	r1, [r3, #0]
100019ea:	2180      	movs	r1, #128	@ 0x80
100019ec:	4b39      	ldr	r3, [pc, #228]	@ (10001ad4 <clocks_init+0x244>)
100019ee:	0049      	lsls	r1, r1, #1
100019f0:	6051      	str	r1, [r2, #4]
100019f2:	61e3      	str	r3, [r4, #28]
100019f4:	4b4c      	ldr	r3, [pc, #304]	@ (10001b28 <clocks_init+0x298>)
100019f6:	685a      	ldr	r2, [r3, #4]
100019f8:	2aff      	cmp	r2, #255	@ 0xff
100019fa:	d800      	bhi.n	100019fe <clocks_init+0x16e>
100019fc:	6059      	str	r1, [r3, #4]
100019fe:	2280      	movs	r2, #128	@ 0x80
10001a00:	4b4a      	ldr	r3, [pc, #296]	@ (10001b2c <clocks_init+0x29c>)
10001a02:	0112      	lsls	r2, r2, #4
10001a04:	601a      	str	r2, [r3, #0]
10001a06:	6a21      	ldr	r1, [r4, #32]
10001a08:	2900      	cmp	r1, #0
10001a0a:	d007      	beq.n	10001a1c <clocks_init+0x18c>
10001a0c:	6960      	ldr	r0, [r4, #20]
10001a0e:	f001 fd2d 	bl	1000346c <__wrap___aeabi_uidiv>
10001a12:	3001      	adds	r0, #1
10001a14:	0043      	lsls	r3, r0, #1
10001a16:	181b      	adds	r3, r3, r0
10001a18:	3b03      	subs	r3, #3
10001a1a:	d2fd      	bcs.n	10001a18 <clocks_init+0x188>
10001a1c:	23e0      	movs	r3, #224	@ 0xe0
10001a1e:	4a42      	ldr	r2, [pc, #264]	@ (10001b28 <clocks_init+0x298>)
10001a20:	6811      	ldr	r1, [r2, #0]
10001a22:	400b      	ands	r3, r1
10001a24:	4942      	ldr	r1, [pc, #264]	@ (10001b30 <clocks_init+0x2a0>)
10001a26:	600b      	str	r3, [r1, #0]
10001a28:	2180      	movs	r1, #128	@ 0x80
10001a2a:	4b42      	ldr	r3, [pc, #264]	@ (10001b34 <clocks_init+0x2a4>)
10001a2c:	0109      	lsls	r1, r1, #4
10001a2e:	6019      	str	r1, [r3, #0]
10001a30:	2380      	movs	r3, #128	@ 0x80
10001a32:	005b      	lsls	r3, r3, #1
10001a34:	6053      	str	r3, [r2, #4]
10001a36:	2280      	movs	r2, #128	@ 0x80
10001a38:	4b26      	ldr	r3, [pc, #152]	@ (10001ad4 <clocks_init+0x244>)
10001a3a:	02d2      	lsls	r2, r2, #11
10001a3c:	6223      	str	r3, [r4, #32]
10001a3e:	4b3e      	ldr	r3, [pc, #248]	@ (10001b38 <clocks_init+0x2a8>)
10001a40:	6859      	ldr	r1, [r3, #4]
10001a42:	4291      	cmp	r1, r2
10001a44:	d200      	bcs.n	10001a48 <clocks_init+0x1b8>
10001a46:	605a      	str	r2, [r3, #4]
10001a48:	2280      	movs	r2, #128	@ 0x80
10001a4a:	4b3c      	ldr	r3, [pc, #240]	@ (10001b3c <clocks_init+0x2ac>)
10001a4c:	0112      	lsls	r2, r2, #4
10001a4e:	601a      	str	r2, [r3, #0]
10001a50:	6a61      	ldr	r1, [r4, #36]	@ 0x24
10001a52:	2900      	cmp	r1, #0
10001a54:	d007      	beq.n	10001a66 <clocks_init+0x1d6>
10001a56:	6960      	ldr	r0, [r4, #20]
10001a58:	f001 fd08 	bl	1000346c <__wrap___aeabi_uidiv>
10001a5c:	3001      	adds	r0, #1
10001a5e:	0043      	lsls	r3, r0, #1
10001a60:	181b      	adds	r3, r3, r0
10001a62:	3b03      	subs	r3, #3
10001a64:	d2fd      	bcs.n	10001a62 <clocks_init+0x1d2>
10001a66:	23e0      	movs	r3, #224	@ 0xe0
10001a68:	4a33      	ldr	r2, [pc, #204]	@ (10001b38 <clocks_init+0x2a8>)
10001a6a:	6811      	ldr	r1, [r2, #0]
10001a6c:	400b      	ands	r3, r1
10001a6e:	4934      	ldr	r1, [pc, #208]	@ (10001b40 <clocks_init+0x2b0>)
10001a70:	600b      	str	r3, [r1, #0]
10001a72:	2180      	movs	r1, #128	@ 0x80
10001a74:	4b33      	ldr	r3, [pc, #204]	@ (10001b44 <clocks_init+0x2b4>)
10001a76:	0109      	lsls	r1, r1, #4
10001a78:	6019      	str	r1, [r3, #0]
10001a7a:	2380      	movs	r3, #128	@ 0x80
10001a7c:	02db      	lsls	r3, r3, #11
10001a7e:	6053      	str	r3, [r2, #4]
10001a80:	4b15      	ldr	r3, [pc, #84]	@ (10001ad8 <clocks_init+0x248>)
10001a82:	6263      	str	r3, [r4, #36]	@ 0x24
10001a84:	4b30      	ldr	r3, [pc, #192]	@ (10001b48 <clocks_init+0x2b8>)
10001a86:	685a      	ldr	r2, [r3, #4]
10001a88:	2aff      	cmp	r2, #255	@ 0xff
10001a8a:	d802      	bhi.n	10001a92 <clocks_init+0x202>
10001a8c:	2280      	movs	r2, #128	@ 0x80
10001a8e:	0052      	lsls	r2, r2, #1
10001a90:	605a      	str	r2, [r3, #4]
10001a92:	2280      	movs	r2, #128	@ 0x80
10001a94:	4b2d      	ldr	r3, [pc, #180]	@ (10001b4c <clocks_init+0x2bc>)
10001a96:	0112      	lsls	r2, r2, #4
10001a98:	601a      	str	r2, [r3, #0]
10001a9a:	69a1      	ldr	r1, [r4, #24]
10001a9c:	2900      	cmp	r1, #0
10001a9e:	d007      	beq.n	10001ab0 <clocks_init+0x220>
10001aa0:	6960      	ldr	r0, [r4, #20]
10001aa2:	f001 fce3 	bl	1000346c <__wrap___aeabi_uidiv>
10001aa6:	3001      	adds	r0, #1
10001aa8:	0043      	lsls	r3, r0, #1
10001aaa:	181b      	adds	r3, r3, r0
10001aac:	3b03      	subs	r3, #3
10001aae:	d2fd      	bcs.n	10001aac <clocks_init+0x21c>
10001ab0:	23e0      	movs	r3, #224	@ 0xe0
10001ab2:	4a25      	ldr	r2, [pc, #148]	@ (10001b48 <clocks_init+0x2b8>)
10001ab4:	6811      	ldr	r1, [r2, #0]
10001ab6:	400b      	ands	r3, r1
10001ab8:	4925      	ldr	r1, [pc, #148]	@ (10001b50 <clocks_init+0x2c0>)
10001aba:	600b      	str	r3, [r1, #0]
10001abc:	2180      	movs	r1, #128	@ 0x80
10001abe:	4b25      	ldr	r3, [pc, #148]	@ (10001b54 <clocks_init+0x2c4>)
10001ac0:	0109      	lsls	r1, r1, #4
10001ac2:	6019      	str	r1, [r3, #0]
10001ac4:	2380      	movs	r3, #128	@ 0x80
10001ac6:	005b      	lsls	r3, r3, #1
10001ac8:	6053      	str	r3, [r2, #4]
10001aca:	4b12      	ldr	r3, [pc, #72]	@ (10001b14 <clocks_init+0x284>)
10001acc:	61a3      	str	r3, [r4, #24]
10001ace:	e6f7      	b.n	100018c0 <clocks_init+0x30>
10001ad0:	20000268 	.word	0x20000268
10001ad4:	02dc6c00 	.word	0x02dc6c00
10001ad8:	0000b71b 	.word	0x0000b71b
10001adc:	40008000 	.word	0x40008000
10001ae0:	4000b03c 	.word	0x4000b03c
10001ae4:	4000b030 	.word	0x4000b030
10001ae8:	59682f00 	.word	0x59682f00
10001aec:	40028000 	.word	0x40028000
10001af0:	47868c00 	.word	0x47868c00
10001af4:	4002c000 	.word	0x4002c000
10001af8:	40008030 	.word	0x40008030
10001afc:	40009030 	.word	0x40009030
10001b00:	4000a030 	.word	0x4000a030
10001b04:	00b71b00 	.word	0x00b71b00
10001b08:	4000803c 	.word	0x4000803c
10001b0c:	4000903c 	.word	0x4000903c
10001b10:	4000a03c 	.word	0x4000a03c
10001b14:	07735940 	.word	0x07735940
10001b18:	40008054 	.word	0x40008054
10001b1c:	4000b054 	.word	0x4000b054
10001b20:	40009054 	.word	0x40009054
10001b24:	4000a054 	.word	0x4000a054
10001b28:	40008060 	.word	0x40008060
10001b2c:	4000b060 	.word	0x4000b060
10001b30:	40009060 	.word	0x40009060
10001b34:	4000a060 	.word	0x4000a060
10001b38:	4000806c 	.word	0x4000806c
10001b3c:	4000b06c 	.word	0x4000b06c
10001b40:	4000906c 	.word	0x4000906c
10001b44:	4000a06c 	.word	0x4000a06c
10001b48:	40008048 	.word	0x40008048
10001b4c:	4000b048 	.word	0x4000b048
10001b50:	40009048 	.word	0x40009048
10001b54:	4000a048 	.word	0x4000a048

10001b58 <clock_get_hz>:
10001b58:	4b01      	ldr	r3, [pc, #4]	@ (10001b60 <clock_get_hz+0x8>)
10001b5a:	0080      	lsls	r0, r0, #2
10001b5c:	58c0      	ldr	r0, [r0, r3]
10001b5e:	4770      	bx	lr
10001b60:	20000268 	.word	0x20000268

10001b64 <pll_init>:
10001b64:	b5f8      	push	{r3, r4, r5, r6, r7, lr}
10001b66:	0004      	movs	r4, r0
10001b68:	4821      	ldr	r0, [pc, #132]	@ (10001bf0 <pll_init+0x8c>)
10001b6a:	001d      	movs	r5, r3
10001b6c:	0017      	movs	r7, r2
10001b6e:	000e      	movs	r6, r1
10001b70:	f001 fc7c 	bl	1000346c <__wrap___aeabi_uidiv>
10001b74:	0001      	movs	r1, r0
10001b76:	0038      	movs	r0, r7
10001b78:	f001 fc78 	bl	1000346c <__wrap___aeabi_uidiv>
10001b7c:	9b06      	ldr	r3, [sp, #24]
10001b7e:	0429      	lsls	r1, r5, #16
10001b80:	031b      	lsls	r3, r3, #12
10001b82:	4319      	orrs	r1, r3
10001b84:	6823      	ldr	r3, [r4, #0]
10001b86:	2b00      	cmp	r3, #0
10001b88:	db20      	blt.n	10001bcc <pll_init+0x68>
10001b8a:	4b1a      	ldr	r3, [pc, #104]	@ (10001bf4 <pll_init+0x90>)
10001b8c:	4d1a      	ldr	r5, [pc, #104]	@ (10001bf8 <pll_init+0x94>)
10001b8e:	18e2      	adds	r2, r4, r3
10001b90:	4253      	negs	r3, r2
10001b92:	415a      	adcs	r2, r3
10001b94:	2380      	movs	r3, #128	@ 0x80
10001b96:	015b      	lsls	r3, r3, #5
10001b98:	469c      	mov	ip, r3
10001b9a:	0312      	lsls	r2, r2, #12
10001b9c:	4b17      	ldr	r3, [pc, #92]	@ (10001bfc <pll_init+0x98>)
10001b9e:	4462      	add	r2, ip
10001ba0:	601a      	str	r2, [r3, #0]
10001ba2:	4b17      	ldr	r3, [pc, #92]	@ (10001c00 <pll_init+0x9c>)
10001ba4:	601a      	str	r2, [r3, #0]
10001ba6:	0017      	movs	r7, r2
10001ba8:	68ab      	ldr	r3, [r5, #8]
10001baa:	439f      	bics	r7, r3
10001bac:	d1fb      	bne.n	10001ba6 <pll_init+0x42>
10001bae:	22c0      	movs	r2, #192	@ 0xc0
10001bb0:	1d23      	adds	r3, r4, #4
10001bb2:	0192      	lsls	r2, r2, #6
10001bb4:	431a      	orrs	r2, r3
10001bb6:	2321      	movs	r3, #33	@ 0x21
10001bb8:	6026      	str	r6, [r4, #0]
10001bba:	60a0      	str	r0, [r4, #8]
10001bbc:	6013      	str	r3, [r2, #0]
10001bbe:	6823      	ldr	r3, [r4, #0]
10001bc0:	2b00      	cmp	r3, #0
10001bc2:	dafc      	bge.n	10001bbe <pll_init+0x5a>
10001bc4:	2308      	movs	r3, #8
10001bc6:	60e1      	str	r1, [r4, #12]
10001bc8:	6013      	str	r3, [r2, #0]
10001bca:	bdf8      	pop	{r3, r4, r5, r6, r7, pc}
10001bcc:	233f      	movs	r3, #63	@ 0x3f
10001bce:	6822      	ldr	r2, [r4, #0]
10001bd0:	4013      	ands	r3, r2
10001bd2:	42b3      	cmp	r3, r6
10001bd4:	d1d9      	bne.n	10001b8a <pll_init+0x26>
10001bd6:	68a3      	ldr	r3, [r4, #8]
10001bd8:	051b      	lsls	r3, r3, #20
10001bda:	0d1b      	lsrs	r3, r3, #20
10001bdc:	4283      	cmp	r3, r0
10001bde:	d1d4      	bne.n	10001b8a <pll_init+0x26>
10001be0:	22ee      	movs	r2, #238	@ 0xee
10001be2:	68e3      	ldr	r3, [r4, #12]
10001be4:	02d2      	lsls	r2, r2, #11
10001be6:	4013      	ands	r3, r2
10001be8:	428b      	cmp	r3, r1
10001bea:	d1ce      	bne.n	10001b8a <pll_init+0x26>
10001bec:	e7ed      	b.n	10001bca <pll_init+0x66>
10001bee:	46c0      	nop			@ (mov r8, r8)
10001bf0:	00b71b00 	.word	0x00b71b00
10001bf4:	bffd4000 	.word	0xbffd4000
10001bf8:	4000c000 	.word	0x4000c000
10001bfc:	4000e000 	.word	0x4000e000
10001c00:	4000f000 	.word	0x4000f000

10001c04 <watchdog_start_tick>:
10001c04:	2380      	movs	r3, #128	@ 0x80
10001c06:	4a02      	ldr	r2, [pc, #8]	@ (10001c10 <watchdog_start_tick+0xc>)
10001c08:	009b      	lsls	r3, r3, #2
10001c0a:	4303      	orrs	r3, r0
10001c0c:	62d3      	str	r3, [r2, #44]	@ 0x2c
10001c0e:	4770      	bx	lr
10001c10:	40058000 	.word	0x40058000

10001c14 <xosc_init>:
10001c14:	23aa      	movs	r3, #170	@ 0xaa
10001c16:	4a06      	ldr	r2, [pc, #24]	@ (10001c30 <xosc_init+0x1c>)
10001c18:	011b      	lsls	r3, r3, #4
10001c1a:	6013      	str	r3, [r2, #0]
10001c1c:	3321      	adds	r3, #33	@ 0x21
10001c1e:	33ff      	adds	r3, #255	@ 0xff
10001c20:	60d3      	str	r3, [r2, #12]
10001c22:	4904      	ldr	r1, [pc, #16]	@ (10001c34 <xosc_init+0x20>)
10001c24:	4b04      	ldr	r3, [pc, #16]	@ (10001c38 <xosc_init+0x24>)
10001c26:	6019      	str	r1, [r3, #0]
10001c28:	6853      	ldr	r3, [r2, #4]
10001c2a:	2b00      	cmp	r3, #0
10001c2c:	dafc      	bge.n	10001c28 <xosc_init+0x14>
10001c2e:	4770      	bx	lr
10001c30:	40024000 	.word	0x40024000
10001c34:	00fab000 	.word	0x00fab000
10001c38:	40026000 	.word	0x40026000

10001c3c <runtime_init>:
10001c3c:	4b2c      	ldr	r3, [pc, #176]	@ (10001cf0 <runtime_init+0xb4>)
10001c3e:	4a2d      	ldr	r2, [pc, #180]	@ (10001cf4 <runtime_init+0xb8>)
10001c40:	b570      	push	{r4, r5, r6, lr}
10001c42:	601a      	str	r2, [r3, #0]
10001c44:	4a2c      	ldr	r2, [pc, #176]	@ (10001cf8 <runtime_init+0xbc>)
10001c46:	4b2d      	ldr	r3, [pc, #180]	@ (10001cfc <runtime_init+0xc0>)
10001c48:	492d      	ldr	r1, [pc, #180]	@ (10001d00 <runtime_init+0xc4>)
10001c4a:	601a      	str	r2, [r3, #0]
10001c4c:	0014      	movs	r4, r2
10001c4e:	688b      	ldr	r3, [r1, #8]
10001c50:	439c      	bics	r4, r3
10001c52:	d1fb      	bne.n	10001c4c <runtime_init+0x10>
10001c54:	4d2b      	ldr	r5, [pc, #172]	@ (10001d04 <runtime_init+0xc8>)
10001c56:	4e2c      	ldr	r6, [pc, #176]	@ (10001d08 <runtime_init+0xcc>)
10001c58:	42b5      	cmp	r5, r6
10001c5a:	d208      	bcs.n	10001c6e <runtime_init+0x32>
10001c5c:	3e01      	subs	r6, #1
10001c5e:	1b76      	subs	r6, r6, r5
10001c60:	08b6      	lsrs	r6, r6, #2
10001c62:	cd08      	ldmia	r5!, {r3}
10001c64:	4798      	blx	r3
10001c66:	0023      	movs	r3, r4
10001c68:	3401      	adds	r4, #1
10001c6a:	42b3      	cmp	r3, r6
10001c6c:	d1f9      	bne.n	10001c62 <runtime_init+0x26>
10001c6e:	f7ff fe0f 	bl	10001890 <clocks_init>
10001c72:	4a26      	ldr	r2, [pc, #152]	@ (10001d0c <runtime_init+0xd0>)
10001c74:	4b21      	ldr	r3, [pc, #132]	@ (10001cfc <runtime_init+0xc0>)
10001c76:	601a      	str	r2, [r3, #0]
10001c78:	4a21      	ldr	r2, [pc, #132]	@ (10001d00 <runtime_init+0xc4>)
10001c7a:	6893      	ldr	r3, [r2, #8]
10001c7c:	43db      	mvns	r3, r3
10001c7e:	01db      	lsls	r3, r3, #7
10001c80:	09dd      	lsrs	r5, r3, #7
10001c82:	2b00      	cmp	r3, #0
10001c84:	d1f9      	bne.n	10001c7a <runtime_init+0x3e>
10001c86:	2240      	movs	r2, #64	@ 0x40
10001c88:	4b21      	ldr	r3, [pc, #132]	@ (10001d10 <runtime_init+0xd4>)
10001c8a:	4c22      	ldr	r4, [pc, #136]	@ (10001d14 <runtime_init+0xd8>)
10001c8c:	4e22      	ldr	r6, [pc, #136]	@ (10001d18 <runtime_init+0xdc>)
10001c8e:	679a      	str	r2, [r3, #120]	@ 0x78
10001c90:	675a      	str	r2, [r3, #116]	@ 0x74
10001c92:	671a      	str	r2, [r3, #112]	@ 0x70
10001c94:	66da      	str	r2, [r3, #108]	@ 0x6c
10001c96:	42b4      	cmp	r4, r6
10001c98:	d208      	bcs.n	10001cac <runtime_init+0x70>
10001c9a:	6823      	ldr	r3, [r4, #0]
10001c9c:	0020      	movs	r0, r4
10001c9e:	2b00      	cmp	r3, #0
10001ca0:	d020      	beq.n	10001ce4 <runtime_init+0xa8>
10001ca2:	3408      	adds	r4, #8
10001ca4:	f7fe fe44 	bl	10000930 <recursive_mutex_init>
10001ca8:	42b4      	cmp	r4, r6
10001caa:	d3f6      	bcc.n	10001c9a <runtime_init+0x5e>
10001cac:	4c1b      	ldr	r4, [pc, #108]	@ (10001d1c <runtime_init+0xe0>)
10001cae:	4e1c      	ldr	r6, [pc, #112]	@ (10001d20 <runtime_init+0xe4>)
10001cb0:	22c0      	movs	r2, #192	@ 0xc0
10001cb2:	68b1      	ldr	r1, [r6, #8]
10001cb4:	0020      	movs	r0, r4
10001cb6:	f001 fff7 	bl	10003ca8 <__wrap___aeabi_memcpy>
10001cba:	60b4      	str	r4, [r6, #8]
10001cbc:	f7fe fc76 	bl	100005ac <spin_locks_reset>
10001cc0:	f7fe fe0e 	bl	100008e0 <irq_init_priorities>
10001cc4:	f7fe ffd4 	bl	10000c70 <alarm_pool_init_default>
10001cc8:	4c16      	ldr	r4, [pc, #88]	@ (10001d24 <runtime_init+0xe8>)
10001cca:	4e17      	ldr	r6, [pc, #92]	@ (10001d28 <runtime_init+0xec>)
10001ccc:	42b4      	cmp	r4, r6
10001cce:	d208      	bcs.n	10001ce2 <runtime_init+0xa6>
10001cd0:	3e01      	subs	r6, #1
10001cd2:	1b36      	subs	r6, r6, r4
10001cd4:	08b6      	lsrs	r6, r6, #2
10001cd6:	cc08      	ldmia	r4!, {r3}
10001cd8:	4798      	blx	r3
10001cda:	002b      	movs	r3, r5
10001cdc:	3501      	adds	r5, #1
10001cde:	429e      	cmp	r6, r3
10001ce0:	d1f9      	bne.n	10001cd6 <runtime_init+0x9a>
10001ce2:	bd70      	pop	{r4, r5, r6, pc}
10001ce4:	3408      	adds	r4, #8
10001ce6:	f7fe fe15 	bl	10000914 <mutex_init>
10001cea:	42b4      	cmp	r4, r6
10001cec:	d3d5      	bcc.n	10001c9a <runtime_init+0x5e>
10001cee:	e7dd      	b.n	10001cac <runtime_init+0x70>
10001cf0:	4000e000 	.word	0x4000e000
10001cf4:	fefbcdbf 	.word	0xfefbcdbf
10001cf8:	003c7ffe 	.word	0x003c7ffe
10001cfc:	4000f000 	.word	0x4000f000
10001d00:	4000c000 	.word	0x4000c000
10001d04:	20000250 	.word	0x20000250
10001d08:	20000260 	.word	0x20000260
10001d0c:	01ffffff 	.word	0x01ffffff
10001d10:	4001f000 	.word	0x4001f000
10001d14:	20000248 	.word	0x20000248
10001d18:	20000250 	.word	0x20000250
10001d1c:	20000000 	.word	0x20000000
10001d20:	e000ed00 	.word	0xe000ed00
10001d24:	20000260 	.word	0x20000260
10001d28:	20000264 	.word	0x20000264

10001d2c <_exit>:
10001d2c:	be00      	bkpt	0x0000
10001d2e:	e7fd      	b.n	10001d2c <_exit>

10001d30 <exit>:
10001d30:	b510      	push	{r4, lr}
10001d32:	f7ff fffb 	bl	10001d2c <_exit>
10001d36:	46c0      	nop			@ (mov r8, r8)

10001d38 <panic>:
10001d38:	b40f      	push	{r0, r1, r2, r3}
10001d3a:	b500      	push	{lr}
10001d3c:	4808      	ldr	r0, [pc, #32]	@ (10001d60 <panic+0x28>)
10001d3e:	b083      	sub	sp, #12
10001d40:	f002 f894 	bl	10003e6c <__wrap_puts>
10001d44:	9b04      	ldr	r3, [sp, #16]
10001d46:	2b00      	cmp	r3, #0
10001d48:	d007      	beq.n	10001d5a <panic+0x22>
10001d4a:	a905      	add	r1, sp, #20
10001d4c:	0018      	movs	r0, r3
10001d4e:	9101      	str	r1, [sp, #4]
10001d50:	f001 fb12 	bl	10003378 <weak_raw_vprintf>
10001d54:	4803      	ldr	r0, [pc, #12]	@ (10001d64 <panic+0x2c>)
10001d56:	f002 f889 	bl	10003e6c <__wrap_puts>
10001d5a:	2001      	movs	r0, #1
10001d5c:	f7ff ffe6 	bl	10001d2c <_exit>
10001d60:	10004980 	.word	0x10004980
10001d64:	10004990 	.word	0x10004990

10001d68 <hard_assertion_failure>:
10001d68:	b510      	push	{r4, lr}
10001d6a:	4801      	ldr	r0, [pc, #4]	@ (10001d70 <hard_assertion_failure+0x8>)
10001d6c:	f7ff ffe4 	bl	10001d38 <panic>
10001d70:	10004994 	.word	0x10004994

10001d74 <_out_null>:
10001d74:	4770      	bx	lr
10001d76:	46c0      	nop			@ (mov r8, r8)

10001d78 <_out_rev>:
10001d78:	b5f8      	push	{r3, r4, r5, r6, r7, lr}
10001d7a:	4657      	mov	r7, sl
10001d7c:	4645      	mov	r5, r8
10001d7e:	46de      	mov	lr, fp
10001d80:	464e      	mov	r6, r9
10001d82:	b5e0      	push	{r5, r6, r7, lr}
10001d84:	4698      	mov	r8, r3
10001d86:	9b0a      	ldr	r3, [sp, #40]	@ 0x28
10001d88:	0006      	movs	r6, r0
10001d8a:	469a      	mov	sl, r3
10001d8c:	9b0d      	ldr	r3, [sp, #52]	@ 0x34
10001d8e:	000f      	movs	r7, r1
10001d90:	4693      	mov	fp, r2
10001d92:	0015      	movs	r5, r2
10001d94:	079b      	lsls	r3, r3, #30
10001d96:	d110      	bne.n	10001dba <_out_rev+0x42>
10001d98:	9b0b      	ldr	r3, [sp, #44]	@ 0x2c
10001d9a:	9a0c      	ldr	r2, [sp, #48]	@ 0x30
10001d9c:	4293      	cmp	r3, r2
10001d9e:	d20c      	bcs.n	10001dba <_out_rev+0x42>
10001da0:	0013      	movs	r3, r2
10001da2:	465c      	mov	r4, fp
10001da4:	9a0b      	ldr	r2, [sp, #44]	@ 0x2c
10001da6:	1a9d      	subs	r5, r3, r2
10001da8:	445d      	add	r5, fp
10001daa:	0022      	movs	r2, r4
10001dac:	4643      	mov	r3, r8
10001dae:	3401      	adds	r4, #1
10001db0:	0039      	movs	r1, r7
10001db2:	2020      	movs	r0, #32
10001db4:	47b0      	blx	r6
10001db6:	42a5      	cmp	r5, r4
10001db8:	d1f7      	bne.n	10001daa <_out_rev+0x32>
10001dba:	9c0b      	ldr	r4, [sp, #44]	@ 0x2c
10001dbc:	1963      	adds	r3, r4, r5
10001dbe:	2c00      	cmp	r4, #0
10001dc0:	d009      	beq.n	10001dd6 <_out_rev+0x5e>
10001dc2:	001d      	movs	r5, r3
10001dc4:	4653      	mov	r3, sl
10001dc6:	1b2a      	subs	r2, r5, r4
10001dc8:	3c01      	subs	r4, #1
10001dca:	5d18      	ldrb	r0, [r3, r4]
10001dcc:	0039      	movs	r1, r7
10001dce:	4643      	mov	r3, r8
10001dd0:	47b0      	blx	r6
10001dd2:	2c00      	cmp	r4, #0
10001dd4:	d1f6      	bne.n	10001dc4 <_out_rev+0x4c>
10001dd6:	9b0d      	ldr	r3, [sp, #52]	@ 0x34
10001dd8:	079b      	lsls	r3, r3, #30
10001dda:	d50e      	bpl.n	10001dfa <_out_rev+0x82>
10001ddc:	465b      	mov	r3, fp
10001dde:	1aec      	subs	r4, r5, r3
10001de0:	9b0c      	ldr	r3, [sp, #48]	@ 0x30
10001de2:	42a3      	cmp	r3, r4
10001de4:	d909      	bls.n	10001dfa <_out_rev+0x82>
10001de6:	4699      	mov	r9, r3
10001de8:	002a      	movs	r2, r5
10001dea:	4643      	mov	r3, r8
10001dec:	0039      	movs	r1, r7
10001dee:	2020      	movs	r0, #32
10001df0:	3401      	adds	r4, #1
10001df2:	47b0      	blx	r6
10001df4:	3501      	adds	r5, #1
10001df6:	45a1      	cmp	r9, r4
10001df8:	d8f6      	bhi.n	10001de8 <_out_rev+0x70>
10001dfa:	0028      	movs	r0, r5
10001dfc:	bcf0      	pop	{r4, r5, r6, r7}
10001dfe:	46bb      	mov	fp, r7
10001e00:	46b2      	mov	sl, r6
10001e02:	46a9      	mov	r9, r5
10001e04:	46a0      	mov	r8, r4
10001e06:	bdf8      	pop	{r3, r4, r5, r6, r7, pc}

10001e08 <_ntoa_format>:
10001e08:	b5f0      	push	{r4, r5, r6, r7, lr}
10001e0a:	464f      	mov	r7, r9
10001e0c:	4646      	mov	r6, r8
10001e0e:	46d6      	mov	lr, sl
10001e10:	b5c0      	push	{r6, r7, lr}
10001e12:	b084      	sub	sp, #16
10001e14:	4698      	mov	r8, r3
10001e16:	ab0e      	add	r3, sp, #56	@ 0x38
10001e18:	781b      	ldrb	r3, [r3, #0]
10001e1a:	4694      	mov	ip, r2
10001e1c:	4699      	mov	r9, r3
10001e1e:	9b12      	ldr	r3, [sp, #72]	@ 0x48
10001e20:	9c0d      	ldr	r4, [sp, #52]	@ 0x34
10001e22:	9f10      	ldr	r7, [sp, #64]	@ 0x40
10001e24:	9e11      	ldr	r6, [sp, #68]	@ 0x44
10001e26:	079a      	lsls	r2, r3, #30
10001e28:	d424      	bmi.n	10001e74 <_ntoa_format+0x6c>
10001e2a:	2e00      	cmp	r6, #0
10001e2c:	d16a      	bne.n	10001f04 <_ntoa_format+0xfc>
10001e2e:	42bc      	cmp	r4, r7
10001e30:	d220      	bcs.n	10001e74 <_ntoa_format+0x6c>
10001e32:	2201      	movs	r2, #1
10001e34:	401a      	ands	r2, r3
10001e36:	4692      	mov	sl, r2
10001e38:	2c20      	cmp	r4, #32
10001e3a:	d100      	bne.n	10001e3e <_ntoa_format+0x36>
10001e3c:	e0cb      	b.n	10001fd6 <_ntoa_format+0x1ce>
10001e3e:	9a0c      	ldr	r2, [sp, #48]	@ 0x30
10001e40:	1e55      	subs	r5, r2, #1
10001e42:	2230      	movs	r2, #48	@ 0x30
10001e44:	e001      	b.n	10001e4a <_ntoa_format+0x42>
10001e46:	2c20      	cmp	r4, #32
10001e48:	d030      	beq.n	10001eac <_ntoa_format+0xa4>
10001e4a:	3401      	adds	r4, #1
10001e4c:	552a      	strb	r2, [r5, r4]
10001e4e:	42a7      	cmp	r7, r4
10001e50:	d8f9      	bhi.n	10001e46 <_ntoa_format+0x3e>
10001e52:	4652      	mov	r2, sl
10001e54:	2a00      	cmp	r2, #0
10001e56:	d00d      	beq.n	10001e74 <_ntoa_format+0x6c>
10001e58:	42b4      	cmp	r4, r6
10001e5a:	d20b      	bcs.n	10001e74 <_ntoa_format+0x6c>
10001e5c:	9a0c      	ldr	r2, [sp, #48]	@ 0x30
10001e5e:	1e55      	subs	r5, r2, #1
10001e60:	2230      	movs	r2, #48	@ 0x30
10001e62:	2c20      	cmp	r4, #32
10001e64:	d102      	bne.n	10001e6c <_ntoa_format+0x64>
10001e66:	e026      	b.n	10001eb6 <_ntoa_format+0xae>
10001e68:	2c20      	cmp	r4, #32
10001e6a:	d061      	beq.n	10001f30 <_ntoa_format+0x128>
10001e6c:	3401      	adds	r4, #1
10001e6e:	552a      	strb	r2, [r5, r4]
10001e70:	42b4      	cmp	r4, r6
10001e72:	d1f9      	bne.n	10001e68 <_ntoa_format+0x60>
10001e74:	06da      	lsls	r2, r3, #27
10001e76:	d534      	bpl.n	10001ee2 <_ntoa_format+0xda>
10001e78:	055a      	lsls	r2, r3, #21
10001e7a:	d462      	bmi.n	10001f42 <_ntoa_format+0x13a>
10001e7c:	2c00      	cmp	r4, #0
10001e7e:	d15c      	bne.n	10001f3a <_ntoa_format+0x132>
10001e80:	9a0f      	ldr	r2, [sp, #60]	@ 0x3c
10001e82:	2a10      	cmp	r2, #16
10001e84:	d100      	bne.n	10001e88 <_ntoa_format+0x80>
10001e86:	e091      	b.n	10001fac <_ntoa_format+0x1a4>
10001e88:	2a02      	cmp	r2, #2
10001e8a:	d100      	bne.n	10001e8e <_ntoa_format+0x86>
10001e8c:	e0a1      	b.n	10001fd2 <_ntoa_format+0x1ca>
10001e8e:	2230      	movs	r2, #48	@ 0x30
10001e90:	9c0c      	ldr	r4, [sp, #48]	@ 0x30
10001e92:	7022      	strb	r2, [r4, #0]
10001e94:	2401      	movs	r4, #1
10001e96:	464a      	mov	r2, r9
10001e98:	2a00      	cmp	r2, #0
10001e9a:	d15c      	bne.n	10001f56 <_ntoa_format+0x14e>
10001e9c:	075a      	lsls	r2, r3, #29
10001e9e:	d400      	bmi.n	10001ea2 <_ntoa_format+0x9a>
10001ea0:	e07d      	b.n	10001f9e <_ntoa_format+0x196>
10001ea2:	222b      	movs	r2, #43	@ 0x2b
10001ea4:	9d0c      	ldr	r5, [sp, #48]	@ 0x30
10001ea6:	552a      	strb	r2, [r5, r4]
10001ea8:	3401      	adds	r4, #1
10001eaa:	e01c      	b.n	10001ee6 <_ntoa_format+0xde>
10001eac:	4652      	mov	r2, sl
10001eae:	2a00      	cmp	r2, #0
10001eb0:	d002      	beq.n	10001eb8 <_ntoa_format+0xb0>
10001eb2:	2e20      	cmp	r6, #32
10001eb4:	d93c      	bls.n	10001f30 <_ntoa_format+0x128>
10001eb6:	2420      	movs	r4, #32
10001eb8:	06da      	lsls	r2, r3, #27
10001eba:	d514      	bpl.n	10001ee6 <_ntoa_format+0xde>
10001ebc:	055a      	lsls	r2, r3, #21
10001ebe:	d412      	bmi.n	10001ee6 <_ntoa_format+0xde>
10001ec0:	2f20      	cmp	r7, #32
10001ec2:	d100      	bne.n	10001ec6 <_ntoa_format+0xbe>
10001ec4:	e097      	b.n	10001ff6 <_ntoa_format+0x1ee>
10001ec6:	2e20      	cmp	r6, #32
10001ec8:	d13b      	bne.n	10001f42 <_ntoa_format+0x13a>
10001eca:	2620      	movs	r6, #32
10001ecc:	221f      	movs	r2, #31
10001ece:	0034      	movs	r4, r6
10001ed0:	9d0f      	ldr	r5, [sp, #60]	@ 0x3c
10001ed2:	2d10      	cmp	r5, #16
10001ed4:	d100      	bne.n	10001ed8 <_ntoa_format+0xd0>
10001ed6:	e081      	b.n	10001fdc <_ntoa_format+0x1d4>
10001ed8:	2d02      	cmp	r5, #2
10001eda:	d04c      	beq.n	10001f76 <_ntoa_format+0x16e>
10001edc:	2530      	movs	r5, #48	@ 0x30
10001ede:	9f0c      	ldr	r7, [sp, #48]	@ 0x30
10001ee0:	54bd      	strb	r5, [r7, r2]
10001ee2:	2c20      	cmp	r4, #32
10001ee4:	d1d7      	bne.n	10001e96 <_ntoa_format+0x8e>
10001ee6:	9303      	str	r3, [sp, #12]
10001ee8:	9b0c      	ldr	r3, [sp, #48]	@ 0x30
10001eea:	4662      	mov	r2, ip
10001eec:	9300      	str	r3, [sp, #0]
10001eee:	9602      	str	r6, [sp, #8]
10001ef0:	4643      	mov	r3, r8
10001ef2:	9401      	str	r4, [sp, #4]
10001ef4:	f7ff ff40 	bl	10001d78 <_out_rev>
10001ef8:	b004      	add	sp, #16
10001efa:	bce0      	pop	{r5, r6, r7}
10001efc:	46ba      	mov	sl, r7
10001efe:	46b1      	mov	r9, r6
10001f00:	46a8      	mov	r8, r5
10001f02:	bdf0      	pop	{r4, r5, r6, r7, pc}
10001f04:	2201      	movs	r2, #1
10001f06:	0015      	movs	r5, r2
10001f08:	401d      	ands	r5, r3
10001f0a:	46aa      	mov	sl, r5
10001f0c:	421a      	tst	r2, r3
10001f0e:	d027      	beq.n	10001f60 <_ntoa_format+0x158>
10001f10:	464a      	mov	r2, r9
10001f12:	2a00      	cmp	r2, #0
10001f14:	d133      	bne.n	10001f7e <_ntoa_format+0x176>
10001f16:	320c      	adds	r2, #12
10001f18:	421a      	tst	r2, r3
10001f1a:	d130      	bne.n	10001f7e <_ntoa_format+0x176>
10001f1c:	42bc      	cmp	r4, r7
10001f1e:	d29b      	bcs.n	10001e58 <_ntoa_format+0x50>
10001f20:	2c20      	cmp	r4, #32
10001f22:	d000      	beq.n	10001f26 <_ntoa_format+0x11e>
10001f24:	e78b      	b.n	10001e3e <_ntoa_format+0x36>
10001f26:	2e20      	cmp	r6, #32
10001f28:	d8c5      	bhi.n	10001eb6 <_ntoa_format+0xae>
10001f2a:	06da      	lsls	r2, r3, #27
10001f2c:	d4a4      	bmi.n	10001e78 <_ntoa_format+0x70>
10001f2e:	e7da      	b.n	10001ee6 <_ntoa_format+0xde>
10001f30:	2420      	movs	r4, #32
10001f32:	06da      	lsls	r2, r3, #27
10001f34:	d5d7      	bpl.n	10001ee6 <_ntoa_format+0xde>
10001f36:	055a      	lsls	r2, r3, #21
10001f38:	d403      	bmi.n	10001f42 <_ntoa_format+0x13a>
10001f3a:	42a7      	cmp	r7, r4
10001f3c:	d021      	beq.n	10001f82 <_ntoa_format+0x17a>
10001f3e:	42b4      	cmp	r4, r6
10001f40:	d01f      	beq.n	10001f82 <_ntoa_format+0x17a>
10001f42:	9a0f      	ldr	r2, [sp, #60]	@ 0x3c
10001f44:	2a10      	cmp	r2, #16
10001f46:	d021      	beq.n	10001f8c <_ntoa_format+0x184>
10001f48:	2a02      	cmp	r2, #2
10001f4a:	d010      	beq.n	10001f6e <_ntoa_format+0x166>
10001f4c:	2c20      	cmp	r4, #32
10001f4e:	d0ca      	beq.n	10001ee6 <_ntoa_format+0xde>
10001f50:	0022      	movs	r2, r4
10001f52:	3401      	adds	r4, #1
10001f54:	e7c2      	b.n	10001edc <_ntoa_format+0xd4>
10001f56:	222d      	movs	r2, #45	@ 0x2d
10001f58:	9d0c      	ldr	r5, [sp, #48]	@ 0x30
10001f5a:	552a      	strb	r2, [r5, r4]
10001f5c:	3401      	adds	r4, #1
10001f5e:	e7c2      	b.n	10001ee6 <_ntoa_format+0xde>
10001f60:	42bc      	cmp	r4, r7
10001f62:	d300      	bcc.n	10001f66 <_ntoa_format+0x15e>
10001f64:	e786      	b.n	10001e74 <_ntoa_format+0x6c>
10001f66:	2c20      	cmp	r4, #32
10001f68:	d000      	beq.n	10001f6c <_ntoa_format+0x164>
10001f6a:	e768      	b.n	10001e3e <_ntoa_format+0x36>
10001f6c:	e7e1      	b.n	10001f32 <_ntoa_format+0x12a>
10001f6e:	2c20      	cmp	r4, #32
10001f70:	d0b9      	beq.n	10001ee6 <_ntoa_format+0xde>
10001f72:	0022      	movs	r2, r4
10001f74:	3401      	adds	r4, #1
10001f76:	2562      	movs	r5, #98	@ 0x62
10001f78:	9f0c      	ldr	r7, [sp, #48]	@ 0x30
10001f7a:	54bd      	strb	r5, [r7, r2]
10001f7c:	e7e6      	b.n	10001f4c <_ntoa_format+0x144>
10001f7e:	3e01      	subs	r6, #1
10001f80:	e7cc      	b.n	10001f1c <_ntoa_format+0x114>
10001f82:	1e62      	subs	r2, r4, #1
10001f84:	2c01      	cmp	r4, #1
10001f86:	d100      	bne.n	10001f8a <_ntoa_format+0x182>
10001f88:	e77a      	b.n	10001e80 <_ntoa_format+0x78>
10001f8a:	e7a1      	b.n	10001ed0 <_ntoa_format+0xc8>
10001f8c:	069a      	lsls	r2, r3, #26
10001f8e:	d416      	bmi.n	10001fbe <_ntoa_format+0x1b6>
10001f90:	2c20      	cmp	r4, #32
10001f92:	d0a8      	beq.n	10001ee6 <_ntoa_format+0xde>
10001f94:	2278      	movs	r2, #120	@ 0x78
10001f96:	9d0c      	ldr	r5, [sp, #48]	@ 0x30
10001f98:	552a      	strb	r2, [r5, r4]
10001f9a:	3401      	adds	r4, #1
10001f9c:	e7d6      	b.n	10001f4c <_ntoa_format+0x144>
10001f9e:	071a      	lsls	r2, r3, #28
10001fa0:	d5a1      	bpl.n	10001ee6 <_ntoa_format+0xde>
10001fa2:	2220      	movs	r2, #32
10001fa4:	9d0c      	ldr	r5, [sp, #48]	@ 0x30
10001fa6:	552a      	strb	r2, [r5, r4]
10001fa8:	3401      	adds	r4, #1
10001faa:	e79c      	b.n	10001ee6 <_ntoa_format+0xde>
10001fac:	069a      	lsls	r2, r3, #26
10001fae:	d40e      	bmi.n	10001fce <_ntoa_format+0x1c6>
10001fb0:	2278      	movs	r2, #120	@ 0x78
10001fb2:	9c0c      	ldr	r4, [sp, #48]	@ 0x30
10001fb4:	7022      	strb	r2, [r4, #0]
10001fb6:	2230      	movs	r2, #48	@ 0x30
10001fb8:	7062      	strb	r2, [r4, #1]
10001fba:	2402      	movs	r4, #2
10001fbc:	e76b      	b.n	10001e96 <_ntoa_format+0x8e>
10001fbe:	2c20      	cmp	r4, #32
10001fc0:	d091      	beq.n	10001ee6 <_ntoa_format+0xde>
10001fc2:	2558      	movs	r5, #88	@ 0x58
10001fc4:	9a0c      	ldr	r2, [sp, #48]	@ 0x30
10001fc6:	1912      	adds	r2, r2, r4
10001fc8:	7015      	strb	r5, [r2, #0]
10001fca:	3401      	adds	r4, #1
10001fcc:	e7be      	b.n	10001f4c <_ntoa_format+0x144>
10001fce:	2258      	movs	r2, #88	@ 0x58
10001fd0:	e7ef      	b.n	10001fb2 <_ntoa_format+0x1aa>
10001fd2:	2262      	movs	r2, #98	@ 0x62
10001fd4:	e7ed      	b.n	10001fb2 <_ntoa_format+0x1aa>
10001fd6:	2a00      	cmp	r2, #0
10001fd8:	d1a7      	bne.n	10001f2a <_ntoa_format+0x122>
10001fda:	e7aa      	b.n	10001f32 <_ntoa_format+0x12a>
10001fdc:	3c02      	subs	r4, #2
10001fde:	069d      	lsls	r5, r3, #26
10001fe0:	d404      	bmi.n	10001fec <_ntoa_format+0x1e4>
10001fe2:	2578      	movs	r5, #120	@ 0x78
10001fe4:	9f0c      	ldr	r7, [sp, #48]	@ 0x30
10001fe6:	553d      	strb	r5, [r7, r4]
10001fe8:	0014      	movs	r4, r2
10001fea:	e7b1      	b.n	10001f50 <_ntoa_format+0x148>
10001fec:	2558      	movs	r5, #88	@ 0x58
10001fee:	9f0c      	ldr	r7, [sp, #48]	@ 0x30
10001ff0:	553d      	strb	r5, [r7, r4]
10001ff2:	0014      	movs	r4, r2
10001ff4:	e7ac      	b.n	10001f50 <_ntoa_format+0x148>
10001ff6:	221f      	movs	r2, #31
10001ff8:	e76a      	b.n	10001ed0 <_ntoa_format+0xc8>
10001ffa:	46c0      	nop			@ (mov r8, r8)

10001ffc <_out_char>:
10001ffc:	b510      	push	{r4, lr}
10001ffe:	2800      	cmp	r0, #0
10002000:	d100      	bne.n	10002004 <_out_char+0x8>
10002002:	bd10      	pop	{r4, pc}
10002004:	f001 fee6 	bl	10003dd4 <__wrap_putchar>
10002008:	e7fb      	b.n	10002002 <_out_char+0x6>
1000200a:	46c0      	nop			@ (mov r8, r8)

1000200c <_out_fct>:
1000200c:	000b      	movs	r3, r1
1000200e:	b510      	push	{r4, lr}
10002010:	2800      	cmp	r0, #0
10002012:	d002      	beq.n	1000201a <_out_fct+0xe>
10002014:	6849      	ldr	r1, [r1, #4]
10002016:	681b      	ldr	r3, [r3, #0]
10002018:	4798      	blx	r3
1000201a:	bd10      	pop	{r4, pc}

1000201c <_etoa>:
1000201c:	b5f0      	push	{r4, r5, r6, r7, lr}
1000201e:	4657      	mov	r7, sl
10002020:	464e      	mov	r6, r9
10002022:	4645      	mov	r5, r8
10002024:	46de      	mov	lr, fp
10002026:	b5e0      	push	{r5, r6, r7, lr}
10002028:	b099      	sub	sp, #100	@ 0x64
1000202a:	4682      	mov	sl, r0
1000202c:	4689      	mov	r9, r1
1000202e:	4690      	mov	r8, r2
10002030:	9309      	str	r3, [sp, #36]	@ 0x24
10002032:	9a22      	ldr	r2, [sp, #136]	@ 0x88
10002034:	9b23      	ldr	r3, [sp, #140]	@ 0x8c
10002036:	0010      	movs	r0, r2
10002038:	0019      	movs	r1, r3
1000203a:	f001 fcc8 	bl	100039ce <__wrap___aeabi_dcmpun>
1000203e:	2800      	cmp	r0, #0
10002040:	d000      	beq.n	10002044 <_etoa+0x28>
10002042:	e0c8      	b.n	100021d6 <_etoa+0x1ba>
10002044:	9822      	ldr	r0, [sp, #136]	@ 0x88
10002046:	9923      	ldr	r1, [sp, #140]	@ 0x8c
10002048:	2201      	movs	r2, #1
1000204a:	4bd5      	ldr	r3, [pc, #852]	@ (100023a0 <_etoa+0x384>)
1000204c:	4252      	negs	r2, r2
1000204e:	f001 fcb9 	bl	100039c4 <__wrap___aeabi_dcmpgt>
10002052:	2800      	cmp	r0, #0
10002054:	d000      	beq.n	10002058 <_etoa+0x3c>
10002056:	e0be      	b.n	100021d6 <_etoa+0x1ba>
10002058:	9822      	ldr	r0, [sp, #136]	@ 0x88
1000205a:	9923      	ldr	r1, [sp, #140]	@ 0x8c
1000205c:	2201      	movs	r2, #1
1000205e:	4bd1      	ldr	r3, [pc, #836]	@ (100023a4 <_etoa+0x388>)
10002060:	4252      	negs	r2, r2
10002062:	f001 fca1 	bl	100039a8 <__wrap___aeabi_dcmplt>
10002066:	2800      	cmp	r0, #0
10002068:	d000      	beq.n	1000206c <_etoa+0x50>
1000206a:	e0b4      	b.n	100021d6 <_etoa+0x1ba>
1000206c:	9822      	ldr	r0, [sp, #136]	@ 0x88
1000206e:	9923      	ldr	r1, [sp, #140]	@ 0x8c
10002070:	2200      	movs	r2, #0
10002072:	2300      	movs	r3, #0
10002074:	f001 fc98 	bl	100039a8 <__wrap___aeabi_dcmplt>
10002078:	2800      	cmp	r0, #0
1000207a:	d000      	beq.n	1000207e <_etoa+0x62>
1000207c:	e1e9      	b.n	10002452 <_etoa+0x436>
1000207e:	9e22      	ldr	r6, [sp, #136]	@ 0x88
10002080:	9f23      	ldr	r7, [sp, #140]	@ 0x8c
10002082:	2380      	movs	r3, #128	@ 0x80
10002084:	9a26      	ldr	r2, [sp, #152]	@ 0x98
10002086:	00db      	lsls	r3, r3, #3
10002088:	401a      	ands	r2, r3
1000208a:	920d      	str	r2, [sp, #52]	@ 0x34
1000208c:	9a26      	ldr	r2, [sp, #152]	@ 0x98
1000208e:	421a      	tst	r2, r3
10002090:	d101      	bne.n	10002096 <_etoa+0x7a>
10002092:	2306      	movs	r3, #6
10002094:	9324      	str	r3, [sp, #144]	@ 0x90
10002096:	003b      	movs	r3, r7
10002098:	4333      	orrs	r3, r6
1000209a:	d000      	beq.n	1000209e <_etoa+0x82>
1000209c:	e0b4      	b.n	10002208 <_etoa+0x1ec>
1000209e:	9b26      	ldr	r3, [sp, #152]	@ 0x98
100020a0:	051b      	lsls	r3, r3, #20
100020a2:	d500      	bpl.n	100020a6 <_etoa+0x8a>
100020a4:	e1bf      	b.n	10002426 <_etoa+0x40a>
100020a6:	2300      	movs	r3, #0
100020a8:	2400      	movs	r4, #0
100020aa:	930a      	str	r3, [sp, #40]	@ 0x28
100020ac:	940b      	str	r4, [sp, #44]	@ 0x2c
100020ae:	2300      	movs	r3, #0
100020b0:	2504      	movs	r5, #4
100020b2:	930c      	str	r3, [sp, #48]	@ 0x30
100020b4:	9b25      	ldr	r3, [sp, #148]	@ 0x94
100020b6:	2400      	movs	r4, #0
100020b8:	42ab      	cmp	r3, r5
100020ba:	d900      	bls.n	100020be <_etoa+0xa2>
100020bc:	1b5c      	subs	r4, r3, r5
100020be:	2302      	movs	r3, #2
100020c0:	9a26      	ldr	r2, [sp, #152]	@ 0x98
100020c2:	401a      	ands	r2, r3
100020c4:	920d      	str	r2, [sp, #52]	@ 0x34
100020c6:	9a26      	ldr	r2, [sp, #152]	@ 0x98
100020c8:	4213      	tst	r3, r2
100020ca:	d003      	beq.n	100020d4 <_etoa+0xb8>
100020cc:	426b      	negs	r3, r5
100020ce:	416b      	adcs	r3, r5
100020d0:	425b      	negs	r3, r3
100020d2:	401c      	ands	r4, r3
100020d4:	9b0c      	ldr	r3, [sp, #48]	@ 0x30
100020d6:	2b00      	cmp	r3, #0
100020d8:	d007      	beq.n	100020ea <_etoa+0xce>
100020da:	9a0a      	ldr	r2, [sp, #40]	@ 0x28
100020dc:	9b0b      	ldr	r3, [sp, #44]	@ 0x2c
100020de:	0030      	movs	r0, r6
100020e0:	0039      	movs	r1, r7
100020e2:	f001 fc08 	bl	100038f6 <__wrap___aeabi_ddiv>
100020e6:	0006      	movs	r6, r0
100020e8:	000f      	movs	r7, r1
100020ea:	9822      	ldr	r0, [sp, #136]	@ 0x88
100020ec:	9923      	ldr	r1, [sp, #140]	@ 0x8c
100020ee:	2200      	movs	r2, #0
100020f0:	2300      	movs	r3, #0
100020f2:	f001 fc59 	bl	100039a8 <__wrap___aeabi_dcmplt>
100020f6:	2800      	cmp	r0, #0
100020f8:	d003      	beq.n	10002102 <_etoa+0xe6>
100020fa:	2180      	movs	r1, #128	@ 0x80
100020fc:	0609      	lsls	r1, r1, #24
100020fe:	187b      	adds	r3, r7, r1
10002100:	001f      	movs	r7, r3
10002102:	9a26      	ldr	r2, [sp, #152]	@ 0x98
10002104:	4ba8      	ldr	r3, [pc, #672]	@ (100023a8 <_etoa+0x38c>)
10002106:	9600      	str	r6, [sp, #0]
10002108:	9701      	str	r7, [sp, #4]
1000210a:	4013      	ands	r3, r2
1000210c:	9e09      	ldr	r6, [sp, #36]	@ 0x24
1000210e:	9304      	str	r3, [sp, #16]
10002110:	9b24      	ldr	r3, [sp, #144]	@ 0x90
10002112:	9403      	str	r4, [sp, #12]
10002114:	9302      	str	r3, [sp, #8]
10002116:	4642      	mov	r2, r8
10002118:	0033      	movs	r3, r6
1000211a:	4649      	mov	r1, r9
1000211c:	4650      	mov	r0, sl
1000211e:	f000 f9a7 	bl	10002470 <_ftoa>
10002122:	0004      	movs	r4, r0
10002124:	2d00      	cmp	r5, #0
10002126:	d067      	beq.n	100021f8 <_etoa+0x1dc>
10002128:	2020      	movs	r0, #32
1000212a:	9a26      	ldr	r2, [sp, #152]	@ 0x98
1000212c:	4649      	mov	r1, r9
1000212e:	4002      	ands	r2, r0
10002130:	0013      	movs	r3, r2
10002132:	425a      	negs	r2, r3
10002134:	4153      	adcs	r3, r2
10002136:	425b      	negs	r3, r3
10002138:	1c62      	adds	r2, r4, #1
1000213a:	4018      	ands	r0, r3
1000213c:	920a      	str	r2, [sp, #40]	@ 0x28
1000213e:	0033      	movs	r3, r6
10002140:	0022      	movs	r2, r4
10002142:	3045      	adds	r0, #69	@ 0x45
10002144:	47d0      	blx	sl
10002146:	9a0c      	ldr	r2, [sp, #48]	@ 0x30
10002148:	1e6f      	subs	r7, r5, #1
1000214a:	17d3      	asrs	r3, r2, #31
1000214c:	18d4      	adds	r4, r2, r3
1000214e:	405c      	eors	r4, r3
10002150:	0fd3      	lsrs	r3, r2, #31
10002152:	469b      	mov	fp, r3
10002154:	2500      	movs	r5, #0
10002156:	e001      	b.n	1000215c <_etoa+0x140>
10002158:	2d20      	cmp	r5, #32
1000215a:	d013      	beq.n	10002184 <_etoa+0x168>
1000215c:	aa08      	add	r2, sp, #32
1000215e:	4694      	mov	ip, r2
10002160:	231f      	movs	r3, #31
10002162:	0020      	movs	r0, r4
10002164:	4463      	add	r3, ip
10002166:	210a      	movs	r1, #10
10002168:	3501      	adds	r5, #1
1000216a:	195e      	adds	r6, r3, r5
1000216c:	f001 f97e 	bl	1000346c <__wrap___aeabi_uidiv>
10002170:	3130      	adds	r1, #48	@ 0x30
10002172:	7031      	strb	r1, [r6, #0]
10002174:	0020      	movs	r0, r4
10002176:	210a      	movs	r1, #10
10002178:	f001 f978 	bl	1000346c <__wrap___aeabi_uidiv>
1000217c:	0026      	movs	r6, r4
1000217e:	0004      	movs	r4, r0
10002180:	2e09      	cmp	r6, #9
10002182:	d8e9      	bhi.n	10002158 <_etoa+0x13c>
10002184:	2305      	movs	r3, #5
10002186:	9306      	str	r3, [sp, #24]
10002188:	2300      	movs	r3, #0
1000218a:	9304      	str	r3, [sp, #16]
1000218c:	330a      	adds	r3, #10
1000218e:	9303      	str	r3, [sp, #12]
10002190:	465b      	mov	r3, fp
10002192:	9e09      	ldr	r6, [sp, #36]	@ 0x24
10002194:	9302      	str	r3, [sp, #8]
10002196:	ab10      	add	r3, sp, #64	@ 0x40
10002198:	9a0a      	ldr	r2, [sp, #40]	@ 0x28
1000219a:	9300      	str	r3, [sp, #0]
1000219c:	4649      	mov	r1, r9
1000219e:	0033      	movs	r3, r6
100021a0:	4650      	mov	r0, sl
100021a2:	9705      	str	r7, [sp, #20]
100021a4:	9501      	str	r5, [sp, #4]
100021a6:	f7ff fe2f 	bl	10001e08 <_ntoa_format>
100021aa:	9a0d      	ldr	r2, [sp, #52]	@ 0x34
100021ac:	0004      	movs	r4, r0
100021ae:	2a00      	cmp	r2, #0
100021b0:	d022      	beq.n	100021f8 <_etoa+0x1dc>
100021b2:	4642      	mov	r2, r8
100021b4:	1a85      	subs	r5, r0, r2
100021b6:	9a25      	ldr	r2, [sp, #148]	@ 0x94
100021b8:	42aa      	cmp	r2, r5
100021ba:	d91d      	bls.n	100021f8 <_etoa+0x1dc>
100021bc:	46b0      	mov	r8, r6
100021be:	4657      	mov	r7, sl
100021c0:	0016      	movs	r6, r2
100021c2:	0022      	movs	r2, r4
100021c4:	4643      	mov	r3, r8
100021c6:	4649      	mov	r1, r9
100021c8:	2020      	movs	r0, #32
100021ca:	3501      	adds	r5, #1
100021cc:	47b8      	blx	r7
100021ce:	3401      	adds	r4, #1
100021d0:	42ae      	cmp	r6, r5
100021d2:	d8f6      	bhi.n	100021c2 <_etoa+0x1a6>
100021d4:	e010      	b.n	100021f8 <_etoa+0x1dc>
100021d6:	9b26      	ldr	r3, [sp, #152]	@ 0x98
100021d8:	4642      	mov	r2, r8
100021da:	9304      	str	r3, [sp, #16]
100021dc:	9b25      	ldr	r3, [sp, #148]	@ 0x94
100021de:	4649      	mov	r1, r9
100021e0:	9303      	str	r3, [sp, #12]
100021e2:	9b24      	ldr	r3, [sp, #144]	@ 0x90
100021e4:	4650      	mov	r0, sl
100021e6:	9302      	str	r3, [sp, #8]
100021e8:	9b22      	ldr	r3, [sp, #136]	@ 0x88
100021ea:	9c23      	ldr	r4, [sp, #140]	@ 0x8c
100021ec:	9300      	str	r3, [sp, #0]
100021ee:	9401      	str	r4, [sp, #4]
100021f0:	9b09      	ldr	r3, [sp, #36]	@ 0x24
100021f2:	f000 f93d 	bl	10002470 <_ftoa>
100021f6:	0004      	movs	r4, r0
100021f8:	0020      	movs	r0, r4
100021fa:	b019      	add	sp, #100	@ 0x64
100021fc:	bcf0      	pop	{r4, r5, r6, r7}
100021fe:	46bb      	mov	fp, r7
10002200:	46b2      	mov	sl, r6
10002202:	46a9      	mov	r9, r5
10002204:	46a0      	mov	r8, r4
10002206:	bdf0      	pop	{r4, r5, r6, r7, pc}
10002208:	4b68      	ldr	r3, [pc, #416]	@ (100023ac <_etoa+0x390>)
1000220a:	0078      	lsls	r0, r7, #1
1000220c:	469c      	mov	ip, r3
1000220e:	0d40      	lsrs	r0, r0, #21
10002210:	4460      	add	r0, ip
10002212:	f001 fbef 	bl	100039f4 <__wrap___aeabi_i2d>
10002216:	4a66      	ldr	r2, [pc, #408]	@ (100023b0 <_etoa+0x394>)
10002218:	4b66      	ldr	r3, [pc, #408]	@ (100023b4 <_etoa+0x398>)
1000221a:	f001 fb86 	bl	1000392a <__wrap___aeabi_dmul>
1000221e:	4a66      	ldr	r2, [pc, #408]	@ (100023b8 <_etoa+0x39c>)
10002220:	4b66      	ldr	r3, [pc, #408]	@ (100023bc <_etoa+0x3a0>)
10002222:	f001 fb63 	bl	100038ec <__wrap___aeabi_dadd>
10002226:	4a66      	ldr	r2, [pc, #408]	@ (100023c0 <_etoa+0x3a4>)
10002228:	033b      	lsls	r3, r7, #12
1000222a:	0b1b      	lsrs	r3, r3, #12
1000222c:	431a      	orrs	r2, r3
1000222e:	0004      	movs	r4, r0
10002230:	000d      	movs	r5, r1
10002232:	4b64      	ldr	r3, [pc, #400]	@ (100023c4 <_etoa+0x3a8>)
10002234:	0011      	movs	r1, r2
10002236:	0030      	movs	r0, r6
10002238:	2200      	movs	r2, #0
1000223a:	f001 fb52 	bl	100038e2 <__wrap___aeabi_dsub>
1000223e:	4a62      	ldr	r2, [pc, #392]	@ (100023c8 <_etoa+0x3ac>)
10002240:	4b62      	ldr	r3, [pc, #392]	@ (100023cc <_etoa+0x3b0>)
10002242:	f001 fb72 	bl	1000392a <__wrap___aeabi_dmul>
10002246:	0002      	movs	r2, r0
10002248:	000b      	movs	r3, r1
1000224a:	0020      	movs	r0, r4
1000224c:	0029      	movs	r1, r5
1000224e:	f001 fb4d 	bl	100038ec <__wrap___aeabi_dadd>
10002252:	f001 fbe7 	bl	10003a24 <__wrap___aeabi_d2iz>
10002256:	900c      	str	r0, [sp, #48]	@ 0x30
10002258:	f001 fbcc 	bl	100039f4 <__wrap___aeabi_i2d>
1000225c:	4a5c      	ldr	r2, [pc, #368]	@ (100023d0 <_etoa+0x3b4>)
1000225e:	4b5d      	ldr	r3, [pc, #372]	@ (100023d4 <_etoa+0x3b8>)
10002260:	0004      	movs	r4, r0
10002262:	000d      	movs	r5, r1
10002264:	f001 fb61 	bl	1000392a <__wrap___aeabi_dmul>
10002268:	2200      	movs	r2, #0
1000226a:	4b5b      	ldr	r3, [pc, #364]	@ (100023d8 <_etoa+0x3bc>)
1000226c:	f001 fb3e 	bl	100038ec <__wrap___aeabi_dadd>
10002270:	f001 fbd8 	bl	10003a24 <__wrap___aeabi_d2iz>
10002274:	4a59      	ldr	r2, [pc, #356]	@ (100023dc <_etoa+0x3c0>)
10002276:	4683      	mov	fp, r0
10002278:	4b59      	ldr	r3, [pc, #356]	@ (100023e0 <_etoa+0x3c4>)
1000227a:	0020      	movs	r0, r4
1000227c:	0029      	movs	r1, r5
1000227e:	f001 fb54 	bl	1000392a <__wrap___aeabi_dmul>
10002282:	0004      	movs	r4, r0
10002284:	4658      	mov	r0, fp
10002286:	000d      	movs	r5, r1
10002288:	f001 fbb4 	bl	100039f4 <__wrap___aeabi_i2d>
1000228c:	4a55      	ldr	r2, [pc, #340]	@ (100023e4 <_etoa+0x3c8>)
1000228e:	4b56      	ldr	r3, [pc, #344]	@ (100023e8 <_etoa+0x3cc>)
10002290:	f001 fb4b 	bl	1000392a <__wrap___aeabi_dmul>
10002294:	0002      	movs	r2, r0
10002296:	000b      	movs	r3, r1
10002298:	0020      	movs	r0, r4
1000229a:	0029      	movs	r1, r5
1000229c:	f001 fb21 	bl	100038e2 <__wrap___aeabi_dsub>
100022a0:	0002      	movs	r2, r0
100022a2:	000b      	movs	r3, r1
100022a4:	900a      	str	r0, [sp, #40]	@ 0x28
100022a6:	910b      	str	r1, [sp, #44]	@ 0x2c
100022a8:	f001 fb3f 	bl	1000392a <__wrap___aeabi_dmul>
100022ac:	0004      	movs	r4, r0
100022ae:	000d      	movs	r5, r1
100022b0:	980a      	ldr	r0, [sp, #40]	@ 0x28
100022b2:	990b      	ldr	r1, [sp, #44]	@ 0x2c
100022b4:	0002      	movs	r2, r0
100022b6:	000b      	movs	r3, r1
100022b8:	f001 fb18 	bl	100038ec <__wrap___aeabi_dadd>
100022bc:	2200      	movs	r2, #0
100022be:	900e      	str	r0, [sp, #56]	@ 0x38
100022c0:	910f      	str	r1, [sp, #60]	@ 0x3c
100022c2:	4b4a      	ldr	r3, [pc, #296]	@ (100023ec <_etoa+0x3d0>)
100022c4:	0020      	movs	r0, r4
100022c6:	0029      	movs	r1, r5
100022c8:	f001 fb15 	bl	100038f6 <__wrap___aeabi_ddiv>
100022cc:	2200      	movs	r2, #0
100022ce:	4b48      	ldr	r3, [pc, #288]	@ (100023f0 <_etoa+0x3d4>)
100022d0:	f001 fb0c 	bl	100038ec <__wrap___aeabi_dadd>
100022d4:	0002      	movs	r2, r0
100022d6:	000b      	movs	r3, r1
100022d8:	0020      	movs	r0, r4
100022da:	0029      	movs	r1, r5
100022dc:	f001 fb0b 	bl	100038f6 <__wrap___aeabi_ddiv>
100022e0:	2200      	movs	r2, #0
100022e2:	4b44      	ldr	r3, [pc, #272]	@ (100023f4 <_etoa+0x3d8>)
100022e4:	f001 fb02 	bl	100038ec <__wrap___aeabi_dadd>
100022e8:	0002      	movs	r2, r0
100022ea:	000b      	movs	r3, r1
100022ec:	0020      	movs	r0, r4
100022ee:	0029      	movs	r1, r5
100022f0:	f001 fb01 	bl	100038f6 <__wrap___aeabi_ddiv>
100022f4:	9a0a      	ldr	r2, [sp, #40]	@ 0x28
100022f6:	9b0b      	ldr	r3, [sp, #44]	@ 0x2c
100022f8:	000d      	movs	r5, r1
100022fa:	2180      	movs	r1, #128	@ 0x80
100022fc:	0004      	movs	r4, r0
100022fe:	05c9      	lsls	r1, r1, #23
10002300:	2000      	movs	r0, #0
10002302:	f001 faee 	bl	100038e2 <__wrap___aeabi_dsub>
10002306:	0002      	movs	r2, r0
10002308:	000b      	movs	r3, r1
1000230a:	0020      	movs	r0, r4
1000230c:	0029      	movs	r1, r5
1000230e:	f001 faed 	bl	100038ec <__wrap___aeabi_dadd>
10002312:	4c39      	ldr	r4, [pc, #228]	@ (100023f8 <_etoa+0x3dc>)
10002314:	0002      	movs	r2, r0
10002316:	000b      	movs	r3, r1
10002318:	980e      	ldr	r0, [sp, #56]	@ 0x38
1000231a:	990f      	ldr	r1, [sp, #60]	@ 0x3c
1000231c:	f001 faeb 	bl	100038f6 <__wrap___aeabi_ddiv>
10002320:	445c      	add	r4, fp
10002322:	2200      	movs	r2, #0
10002324:	4b26      	ldr	r3, [pc, #152]	@ (100023c0 <_etoa+0x3a4>)
10002326:	f001 fae1 	bl	100038ec <__wrap___aeabi_dadd>
1000232a:	0523      	lsls	r3, r4, #20
1000232c:	2200      	movs	r2, #0
1000232e:	f001 fafc 	bl	1000392a <__wrap___aeabi_dmul>
10002332:	0004      	movs	r4, r0
10002334:	000d      	movs	r5, r1
10002336:	0002      	movs	r2, r0
10002338:	000b      	movs	r3, r1
1000233a:	0030      	movs	r0, r6
1000233c:	0039      	movs	r1, r7
1000233e:	940a      	str	r4, [sp, #40]	@ 0x28
10002340:	950b      	str	r5, [sp, #44]	@ 0x2c
10002342:	f001 fb31 	bl	100039a8 <__wrap___aeabi_dcmplt>
10002346:	2800      	cmp	r0, #0
10002348:	d15e      	bne.n	10002408 <_etoa+0x3ec>
1000234a:	0023      	movs	r3, r4
1000234c:	002a      	movs	r2, r5
1000234e:	25c6      	movs	r5, #198	@ 0xc6
10002350:	990c      	ldr	r1, [sp, #48]	@ 0x30
10002352:	3163      	adds	r1, #99	@ 0x63
10002354:	428d      	cmp	r5, r1
10002356:	41ad      	sbcs	r5, r5
10002358:	9926      	ldr	r1, [sp, #152]	@ 0x98
1000235a:	426d      	negs	r5, r5
1000235c:	3504      	adds	r5, #4
1000235e:	0509      	lsls	r1, r1, #20
10002360:	d400      	bmi.n	10002364 <_etoa+0x348>
10002362:	e6a7      	b.n	100020b4 <_etoa+0x98>
10002364:	4313      	orrs	r3, r2
10002366:	d064      	beq.n	10002432 <_etoa+0x416>
10002368:	0030      	movs	r0, r6
1000236a:	0039      	movs	r1, r7
1000236c:	4a23      	ldr	r2, [pc, #140]	@ (100023fc <_etoa+0x3e0>)
1000236e:	4b24      	ldr	r3, [pc, #144]	@ (10002400 <_etoa+0x3e4>)
10002370:	f001 fb20 	bl	100039b4 <__wrap___aeabi_dcmpge>
10002374:	2800      	cmp	r0, #0
10002376:	d007      	beq.n	10002388 <_etoa+0x36c>
10002378:	2200      	movs	r2, #0
1000237a:	0030      	movs	r0, r6
1000237c:	0039      	movs	r1, r7
1000237e:	4b21      	ldr	r3, [pc, #132]	@ (10002404 <_etoa+0x3e8>)
10002380:	f001 fb12 	bl	100039a8 <__wrap___aeabi_dcmplt>
10002384:	2800      	cmp	r0, #0
10002386:	d154      	bne.n	10002432 <_etoa+0x416>
10002388:	9b24      	ldr	r3, [sp, #144]	@ 0x90
1000238a:	2b00      	cmp	r3, #0
1000238c:	d100      	bne.n	10002390 <_etoa+0x374>
1000238e:	e691      	b.n	100020b4 <_etoa+0x98>
10002390:	9b0d      	ldr	r3, [sp, #52]	@ 0x34
10002392:	1e5a      	subs	r2, r3, #1
10002394:	4193      	sbcs	r3, r2
10002396:	9a24      	ldr	r2, [sp, #144]	@ 0x90
10002398:	1ad3      	subs	r3, r2, r3
1000239a:	9324      	str	r3, [sp, #144]	@ 0x90
1000239c:	e68a      	b.n	100020b4 <_etoa+0x98>
1000239e:	46c0      	nop			@ (mov r8, r8)
100023a0:	7fefffff 	.word	0x7fefffff
100023a4:	ffefffff 	.word	0xffefffff
100023a8:	fffff7ff 	.word	0xfffff7ff
100023ac:	fffffc01 	.word	0xfffffc01
100023b0:	509f79fb 	.word	0x509f79fb
100023b4:	3fd34413 	.word	0x3fd34413
100023b8:	8b60c8b3 	.word	0x8b60c8b3
100023bc:	3fc68a28 	.word	0x3fc68a28
100023c0:	3ff00000 	.word	0x3ff00000
100023c4:	3ff80000 	.word	0x3ff80000
100023c8:	636f4361 	.word	0x636f4361
100023cc:	3fd287a7 	.word	0x3fd287a7
100023d0:	0979a371 	.word	0x0979a371
100023d4:	400a934f 	.word	0x400a934f
100023d8:	3fe00000 	.word	0x3fe00000
100023dc:	bbb55516 	.word	0xbbb55516
100023e0:	40026bb1 	.word	0x40026bb1
100023e4:	fefa39ef 	.word	0xfefa39ef
100023e8:	3fe62e42 	.word	0x3fe62e42
100023ec:	402c0000 	.word	0x402c0000
100023f0:	40240000 	.word	0x40240000
100023f4:	40180000 	.word	0x40180000
100023f8:	000003ff 	.word	0x000003ff
100023fc:	eb1c432d 	.word	0xeb1c432d
10002400:	3f1a36e2 	.word	0x3f1a36e2
10002404:	412e8480 	.word	0x412e8480
10002408:	9b0c      	ldr	r3, [sp, #48]	@ 0x30
1000240a:	2200      	movs	r2, #0
1000240c:	3b01      	subs	r3, #1
1000240e:	930c      	str	r3, [sp, #48]	@ 0x30
10002410:	0020      	movs	r0, r4
10002412:	4b16      	ldr	r3, [pc, #88]	@ (1000246c <_etoa+0x450>)
10002414:	0029      	movs	r1, r5
10002416:	f001 fa6e 	bl	100038f6 <__wrap___aeabi_ddiv>
1000241a:	000a      	movs	r2, r1
1000241c:	0001      	movs	r1, r0
1000241e:	0003      	movs	r3, r0
10002420:	910a      	str	r1, [sp, #40]	@ 0x28
10002422:	920b      	str	r2, [sp, #44]	@ 0x2c
10002424:	e793      	b.n	1000234e <_etoa+0x332>
10002426:	2300      	movs	r3, #0
10002428:	2400      	movs	r4, #0
1000242a:	930a      	str	r3, [sp, #40]	@ 0x28
1000242c:	940b      	str	r4, [sp, #44]	@ 0x2c
1000242e:	2300      	movs	r3, #0
10002430:	930c      	str	r3, [sp, #48]	@ 0x30
10002432:	9a24      	ldr	r2, [sp, #144]	@ 0x90
10002434:	9b0c      	ldr	r3, [sp, #48]	@ 0x30
10002436:	429a      	cmp	r2, r3
10002438:	dd14      	ble.n	10002464 <_etoa+0x448>
1000243a:	1ad3      	subs	r3, r2, r3
1000243c:	3b01      	subs	r3, #1
1000243e:	9324      	str	r3, [sp, #144]	@ 0x90
10002440:	2380      	movs	r3, #128	@ 0x80
10002442:	9a26      	ldr	r2, [sp, #152]	@ 0x98
10002444:	00db      	lsls	r3, r3, #3
10002446:	431a      	orrs	r2, r3
10002448:	2300      	movs	r3, #0
1000244a:	2500      	movs	r5, #0
1000244c:	9226      	str	r2, [sp, #152]	@ 0x98
1000244e:	930c      	str	r3, [sp, #48]	@ 0x30
10002450:	e630      	b.n	100020b4 <_etoa+0x98>
10002452:	2280      	movs	r2, #128	@ 0x80
10002454:	0612      	lsls	r2, r2, #24
10002456:	4694      	mov	ip, r2
10002458:	9b22      	ldr	r3, [sp, #136]	@ 0x88
1000245a:	001e      	movs	r6, r3
1000245c:	9b23      	ldr	r3, [sp, #140]	@ 0x8c
1000245e:	4463      	add	r3, ip
10002460:	001f      	movs	r7, r3
10002462:	e60e      	b.n	10002082 <_etoa+0x66>
10002464:	2300      	movs	r3, #0
10002466:	9324      	str	r3, [sp, #144]	@ 0x90
10002468:	e7ea      	b.n	10002440 <_etoa+0x424>
1000246a:	46c0      	nop			@ (mov r8, r8)
1000246c:	40240000 	.word	0x40240000

10002470 <_ftoa>:
10002470:	b5f0      	push	{r4, r5, r6, r7, lr}
10002472:	4645      	mov	r5, r8
10002474:	46de      	mov	lr, fp
10002476:	464e      	mov	r6, r9
10002478:	4657      	mov	r7, sl
1000247a:	b5e0      	push	{r5, r6, r7, lr}
1000247c:	b095      	sub	sp, #84	@ 0x54
1000247e:	468b      	mov	fp, r1
10002480:	4690      	mov	r8, r2
10002482:	4699      	mov	r9, r3
10002484:	9a1e      	ldr	r2, [sp, #120]	@ 0x78
10002486:	9b1f      	ldr	r3, [sp, #124]	@ 0x7c
10002488:	900a      	str	r0, [sp, #40]	@ 0x28
1000248a:	0019      	movs	r1, r3
1000248c:	0010      	movs	r0, r2
1000248e:	9d20      	ldr	r5, [sp, #128]	@ 0x80
10002490:	f001 fa9d 	bl	100039ce <__wrap___aeabi_dcmpun>
10002494:	2800      	cmp	r0, #0
10002496:	d000      	beq.n	1000249a <_ftoa+0x2a>
10002498:	e1b0      	b.n	100027fc <_ftoa+0x38c>
1000249a:	981e      	ldr	r0, [sp, #120]	@ 0x78
1000249c:	991f      	ldr	r1, [sp, #124]	@ 0x7c
1000249e:	2201      	movs	r2, #1
100024a0:	4bc7      	ldr	r3, [pc, #796]	@ (100027c0 <_ftoa+0x350>)
100024a2:	4252      	negs	r2, r2
100024a4:	f001 fa80 	bl	100039a8 <__wrap___aeabi_dcmplt>
100024a8:	2800      	cmp	r0, #0
100024aa:	d000      	beq.n	100024ae <_ftoa+0x3e>
100024ac:	e137      	b.n	1000271e <_ftoa+0x2ae>
100024ae:	981e      	ldr	r0, [sp, #120]	@ 0x78
100024b0:	991f      	ldr	r1, [sp, #124]	@ 0x7c
100024b2:	2201      	movs	r2, #1
100024b4:	4bc3      	ldr	r3, [pc, #780]	@ (100027c4 <_ftoa+0x354>)
100024b6:	4252      	negs	r2, r2
100024b8:	f001 fa84 	bl	100039c4 <__wrap___aeabi_dcmpgt>
100024bc:	2800      	cmp	r0, #0
100024be:	d000      	beq.n	100024c2 <_ftoa+0x52>
100024c0:	e0a7      	b.n	10002612 <_ftoa+0x1a2>
100024c2:	981e      	ldr	r0, [sp, #120]	@ 0x78
100024c4:	991f      	ldr	r1, [sp, #124]	@ 0x7c
100024c6:	2200      	movs	r2, #0
100024c8:	4bbf      	ldr	r3, [pc, #764]	@ (100027c8 <_ftoa+0x358>)
100024ca:	f001 fa7b 	bl	100039c4 <__wrap___aeabi_dcmpgt>
100024ce:	2800      	cmp	r0, #0
100024d0:	d000      	beq.n	100024d4 <_ftoa+0x64>
100024d2:	e088      	b.n	100025e6 <_ftoa+0x176>
100024d4:	981e      	ldr	r0, [sp, #120]	@ 0x78
100024d6:	991f      	ldr	r1, [sp, #124]	@ 0x7c
100024d8:	2200      	movs	r2, #0
100024da:	4bbc      	ldr	r3, [pc, #752]	@ (100027cc <_ftoa+0x35c>)
100024dc:	f001 fa64 	bl	100039a8 <__wrap___aeabi_dcmplt>
100024e0:	2800      	cmp	r0, #0
100024e2:	d000      	beq.n	100024e6 <_ftoa+0x76>
100024e4:	e07f      	b.n	100025e6 <_ftoa+0x176>
100024e6:	981e      	ldr	r0, [sp, #120]	@ 0x78
100024e8:	991f      	ldr	r1, [sp, #124]	@ 0x7c
100024ea:	2200      	movs	r2, #0
100024ec:	2300      	movs	r3, #0
100024ee:	f001 fa5b 	bl	100039a8 <__wrap___aeabi_dcmplt>
100024f2:	2800      	cmp	r0, #0
100024f4:	d000      	beq.n	100024f8 <_ftoa+0x88>
100024f6:	e0fa      	b.n	100026ee <_ftoa+0x27e>
100024f8:	2300      	movs	r3, #0
100024fa:	930b      	str	r3, [sp, #44]	@ 0x2c
100024fc:	2380      	movs	r3, #128	@ 0x80
100024fe:	9c22      	ldr	r4, [sp, #136]	@ 0x88
10002500:	9a22      	ldr	r2, [sp, #136]	@ 0x88
10002502:	00db      	lsls	r3, r3, #3
10002504:	401c      	ands	r4, r3
10002506:	421a      	tst	r2, r3
10002508:	d100      	bne.n	1000250c <_ftoa+0x9c>
1000250a:	e102      	b.n	10002712 <_ftoa+0x2a2>
1000250c:	2d09      	cmp	r5, #9
1000250e:	d800      	bhi.n	10002512 <_ftoa+0xa2>
10002510:	e17e      	b.n	10002810 <_ftoa+0x3a0>
10002512:	a906      	add	r1, sp, #24
10002514:	468c      	mov	ip, r1
10002516:	002c      	movs	r4, r5
10002518:	2217      	movs	r2, #23
1000251a:	2300      	movs	r3, #0
1000251c:	2130      	movs	r1, #48	@ 0x30
1000251e:	3c09      	subs	r4, #9
10002520:	4462      	add	r2, ip
10002522:	3301      	adds	r3, #1
10002524:	54d1      	strb	r1, [r2, r3]
10002526:	1aef      	subs	r7, r5, r3
10002528:	2b20      	cmp	r3, #32
1000252a:	d100      	bne.n	1000252e <_ftoa+0xbe>
1000252c:	e132      	b.n	10002794 <_ftoa+0x324>
1000252e:	42a3      	cmp	r3, r4
10002530:	d1f7      	bne.n	10002522 <_ftoa+0xb2>
10002532:	2200      	movs	r2, #0
10002534:	4ba4      	ldr	r3, [pc, #656]	@ (100027c8 <_ftoa+0x358>)
10002536:	9206      	str	r2, [sp, #24]
10002538:	9307      	str	r3, [sp, #28]
1000253a:	981e      	ldr	r0, [sp, #120]	@ 0x78
1000253c:	991f      	ldr	r1, [sp, #124]	@ 0x7c
1000253e:	f001 fa71 	bl	10003a24 <__wrap___aeabi_d2iz>
10002542:	0005      	movs	r5, r0
10002544:	f001 fa56 	bl	100039f4 <__wrap___aeabi_i2d>
10002548:	0002      	movs	r2, r0
1000254a:	000b      	movs	r3, r1
1000254c:	981e      	ldr	r0, [sp, #120]	@ 0x78
1000254e:	991f      	ldr	r1, [sp, #124]	@ 0x7c
10002550:	f001 f9c7 	bl	100038e2 <__wrap___aeabi_dsub>
10002554:	9a06      	ldr	r2, [sp, #24]
10002556:	9b07      	ldr	r3, [sp, #28]
10002558:	f001 f9e7 	bl	1000392a <__wrap___aeabi_dmul>
1000255c:	9008      	str	r0, [sp, #32]
1000255e:	9109      	str	r1, [sp, #36]	@ 0x24
10002560:	f001 fa84 	bl	10003a6c <__wrap___aeabi_d2uiz>
10002564:	0006      	movs	r6, r0
10002566:	f001 fa41 	bl	100039ec <__wrap___aeabi_ui2d>
1000256a:	0002      	movs	r2, r0
1000256c:	000b      	movs	r3, r1
1000256e:	9808      	ldr	r0, [sp, #32]
10002570:	9909      	ldr	r1, [sp, #36]	@ 0x24
10002572:	f001 f9b6 	bl	100038e2 <__wrap___aeabi_dsub>
10002576:	2200      	movs	r2, #0
10002578:	4b95      	ldr	r3, [pc, #596]	@ (100027d0 <_ftoa+0x360>)
1000257a:	9008      	str	r0, [sp, #32]
1000257c:	9109      	str	r1, [sp, #36]	@ 0x24
1000257e:	f001 fa21 	bl	100039c4 <__wrap___aeabi_dcmpgt>
10002582:	2800      	cmp	r0, #0
10002584:	d100      	bne.n	10002588 <_ftoa+0x118>
10002586:	e0d2      	b.n	1000272e <_ftoa+0x2be>
10002588:	3601      	adds	r6, #1
1000258a:	0030      	movs	r0, r6
1000258c:	f001 fa2e 	bl	100039ec <__wrap___aeabi_ui2d>
10002590:	9a06      	ldr	r2, [sp, #24]
10002592:	9b07      	ldr	r3, [sp, #28]
10002594:	f001 fa0e 	bl	100039b4 <__wrap___aeabi_dcmpge>
10002598:	2800      	cmp	r0, #0
1000259a:	d001      	beq.n	100025a0 <_ftoa+0x130>
1000259c:	2600      	movs	r6, #0
1000259e:	3501      	adds	r5, #1
100025a0:	46aa      	mov	sl, r5
100025a2:	2f00      	cmp	r7, #0
100025a4:	d000      	beq.n	100025a8 <_ftoa+0x138>
100025a6:	e098      	b.n	100026da <_ftoa+0x26a>
100025a8:	0028      	movs	r0, r5
100025aa:	f001 fa23 	bl	100039f4 <__wrap___aeabi_i2d>
100025ae:	0002      	movs	r2, r0
100025b0:	000b      	movs	r3, r1
100025b2:	981e      	ldr	r0, [sp, #120]	@ 0x78
100025b4:	991f      	ldr	r1, [sp, #124]	@ 0x7c
100025b6:	f001 f994 	bl	100038e2 <__wrap___aeabi_dsub>
100025ba:	4b85      	ldr	r3, [pc, #532]	@ (100027d0 <_ftoa+0x360>)
100025bc:	2200      	movs	r2, #0
100025be:	0006      	movs	r6, r0
100025c0:	000f      	movs	r7, r1
100025c2:	f001 f9f1 	bl	100039a8 <__wrap___aeabi_dcmplt>
100025c6:	ab0c      	add	r3, sp, #48	@ 0x30
100025c8:	469a      	mov	sl, r3
100025ca:	2800      	cmp	r0, #0
100025cc:	d145      	bne.n	1000265a <_ftoa+0x1ea>
100025ce:	2200      	movs	r2, #0
100025d0:	0030      	movs	r0, r6
100025d2:	0039      	movs	r1, r7
100025d4:	4b7e      	ldr	r3, [pc, #504]	@ (100027d0 <_ftoa+0x360>)
100025d6:	f001 f9f5 	bl	100039c4 <__wrap___aeabi_dcmpgt>
100025da:	2800      	cmp	r0, #0
100025dc:	d13d      	bne.n	1000265a <_ftoa+0x1ea>
100025de:	07eb      	lsls	r3, r5, #31
100025e0:	d53b      	bpl.n	1000265a <_ftoa+0x1ea>
100025e2:	3501      	adds	r5, #1
100025e4:	e039      	b.n	1000265a <_ftoa+0x1ea>
100025e6:	9b22      	ldr	r3, [sp, #136]	@ 0x88
100025e8:	4642      	mov	r2, r8
100025ea:	9304      	str	r3, [sp, #16]
100025ec:	9b21      	ldr	r3, [sp, #132]	@ 0x84
100025ee:	4659      	mov	r1, fp
100025f0:	9303      	str	r3, [sp, #12]
100025f2:	980a      	ldr	r0, [sp, #40]	@ 0x28
100025f4:	9b1e      	ldr	r3, [sp, #120]	@ 0x78
100025f6:	9c1f      	ldr	r4, [sp, #124]	@ 0x7c
100025f8:	9502      	str	r5, [sp, #8]
100025fa:	9300      	str	r3, [sp, #0]
100025fc:	9401      	str	r4, [sp, #4]
100025fe:	464b      	mov	r3, r9
10002600:	f7ff fd0c 	bl	1000201c <_etoa>
10002604:	b015      	add	sp, #84	@ 0x54
10002606:	bcf0      	pop	{r4, r5, r6, r7}
10002608:	46bb      	mov	fp, r7
1000260a:	46b2      	mov	sl, r6
1000260c:	46a9      	mov	r9, r5
1000260e:	46a0      	mov	r8, r4
10002610:	bdf0      	pop	{r4, r5, r6, r7, pc}
10002612:	9b22      	ldr	r3, [sp, #136]	@ 0x88
10002614:	075b      	lsls	r3, r3, #29
10002616:	d467      	bmi.n	100026e8 <_ftoa+0x278>
10002618:	2203      	movs	r2, #3
1000261a:	4b6e      	ldr	r3, [pc, #440]	@ (100027d4 <_ftoa+0x364>)
1000261c:	9922      	ldr	r1, [sp, #136]	@ 0x88
1000261e:	9201      	str	r2, [sp, #4]
10002620:	9103      	str	r1, [sp, #12]
10002622:	9921      	ldr	r1, [sp, #132]	@ 0x84
10002624:	9102      	str	r1, [sp, #8]
10002626:	9300      	str	r3, [sp, #0]
10002628:	4642      	mov	r2, r8
1000262a:	464b      	mov	r3, r9
1000262c:	4659      	mov	r1, fp
1000262e:	980a      	ldr	r0, [sp, #40]	@ 0x28
10002630:	f7ff fba2 	bl	10001d78 <_out_rev>
10002634:	e7e6      	b.n	10002604 <_ftoa+0x194>
10002636:	aa06      	add	r2, sp, #24
10002638:	4694      	mov	ip, r2
1000263a:	2317      	movs	r3, #23
1000263c:	0028      	movs	r0, r5
1000263e:	4463      	add	r3, ip
10002640:	210a      	movs	r1, #10
10002642:	3401      	adds	r4, #1
10002644:	191e      	adds	r6, r3, r4
10002646:	f000 fee9 	bl	1000341c <__wrap___aeabi_idiv>
1000264a:	3130      	adds	r1, #48	@ 0x30
1000264c:	0028      	movs	r0, r5
1000264e:	7031      	strb	r1, [r6, #0]
10002650:	210a      	movs	r1, #10
10002652:	f000 fee3 	bl	1000341c <__wrap___aeabi_idiv>
10002656:	1e05      	subs	r5, r0, #0
10002658:	d076      	beq.n	10002748 <_ftoa+0x2d8>
1000265a:	2c20      	cmp	r4, #32
1000265c:	d1eb      	bne.n	10002636 <_ftoa+0x1c6>
1000265e:	2303      	movs	r3, #3
10002660:	9a22      	ldr	r2, [sp, #136]	@ 0x88
10002662:	4013      	ands	r3, r2
10002664:	2b01      	cmp	r3, #1
10002666:	d11d      	bne.n	100026a4 <_ftoa+0x234>
10002668:	9b21      	ldr	r3, [sp, #132]	@ 0x84
1000266a:	2b00      	cmp	r3, #0
1000266c:	d01a      	beq.n	100026a4 <_ftoa+0x234>
1000266e:	9b0b      	ldr	r3, [sp, #44]	@ 0x2c
10002670:	2b00      	cmp	r3, #0
10002672:	d000      	beq.n	10002676 <_ftoa+0x206>
10002674:	e0bb      	b.n	100027ee <_ftoa+0x37e>
10002676:	9a22      	ldr	r2, [sp, #136]	@ 0x88
10002678:	330c      	adds	r3, #12
1000267a:	4213      	tst	r3, r2
1000267c:	d000      	beq.n	10002680 <_ftoa+0x210>
1000267e:	e0b6      	b.n	100027ee <_ftoa+0x37e>
10002680:	9b21      	ldr	r3, [sp, #132]	@ 0x84
10002682:	42a3      	cmp	r3, r4
10002684:	d800      	bhi.n	10002688 <_ftoa+0x218>
10002686:	e087      	b.n	10002798 <_ftoa+0x328>
10002688:	ab06      	add	r3, sp, #24
1000268a:	469c      	mov	ip, r3
1000268c:	2217      	movs	r2, #23
1000268e:	2330      	movs	r3, #48	@ 0x30
10002690:	4462      	add	r2, ip
10002692:	e004      	b.n	1000269e <_ftoa+0x22e>
10002694:	9921      	ldr	r1, [sp, #132]	@ 0x84
10002696:	3401      	adds	r4, #1
10002698:	5513      	strb	r3, [r2, r4]
1000269a:	428c      	cmp	r4, r1
1000269c:	d059      	beq.n	10002752 <_ftoa+0x2e2>
1000269e:	2c20      	cmp	r4, #32
100026a0:	d1f8      	bne.n	10002694 <_ftoa+0x224>
100026a2:	2420      	movs	r4, #32
100026a4:	9b22      	ldr	r3, [sp, #136]	@ 0x88
100026a6:	9401      	str	r4, [sp, #4]
100026a8:	9303      	str	r3, [sp, #12]
100026aa:	9b21      	ldr	r3, [sp, #132]	@ 0x84
100026ac:	9302      	str	r3, [sp, #8]
100026ae:	4653      	mov	r3, sl
100026b0:	e7b9      	b.n	10002626 <_ftoa+0x1b6>
100026b2:	aa06      	add	r2, sp, #24
100026b4:	4694      	mov	ip, r2
100026b6:	2317      	movs	r3, #23
100026b8:	210a      	movs	r1, #10
100026ba:	4463      	add	r3, ip
100026bc:	0030      	movs	r0, r6
100026be:	3401      	adds	r4, #1
100026c0:	191d      	adds	r5, r3, r4
100026c2:	f000 fed3 	bl	1000346c <__wrap___aeabi_uidiv>
100026c6:	3130      	adds	r1, #48	@ 0x30
100026c8:	7029      	strb	r1, [r5, #0]
100026ca:	0030      	movs	r0, r6
100026cc:	210a      	movs	r1, #10
100026ce:	3f01      	subs	r7, #1
100026d0:	f000 fecc 	bl	1000346c <__wrap___aeabi_uidiv>
100026d4:	2e09      	cmp	r6, #9
100026d6:	d946      	bls.n	10002766 <_ftoa+0x2f6>
100026d8:	0006      	movs	r6, r0
100026da:	2c20      	cmp	r4, #32
100026dc:	d1e9      	bne.n	100026b2 <_ftoa+0x242>
100026de:	4655      	mov	r5, sl
100026e0:	ab0c      	add	r3, sp, #48	@ 0x30
100026e2:	2420      	movs	r4, #32
100026e4:	469a      	mov	sl, r3
100026e6:	e7b8      	b.n	1000265a <_ftoa+0x1ea>
100026e8:	2204      	movs	r2, #4
100026ea:	4b3b      	ldr	r3, [pc, #236]	@ (100027d8 <_ftoa+0x368>)
100026ec:	e796      	b.n	1000261c <_ftoa+0x1ac>
100026ee:	9a1e      	ldr	r2, [sp, #120]	@ 0x78
100026f0:	9b1f      	ldr	r3, [sp, #124]	@ 0x7c
100026f2:	2000      	movs	r0, #0
100026f4:	2100      	movs	r1, #0
100026f6:	f001 f8f4 	bl	100038e2 <__wrap___aeabi_dsub>
100026fa:	2301      	movs	r3, #1
100026fc:	930b      	str	r3, [sp, #44]	@ 0x2c
100026fe:	2380      	movs	r3, #128	@ 0x80
10002700:	9c22      	ldr	r4, [sp, #136]	@ 0x88
10002702:	9a22      	ldr	r2, [sp, #136]	@ 0x88
10002704:	00db      	lsls	r3, r3, #3
10002706:	901e      	str	r0, [sp, #120]	@ 0x78
10002708:	911f      	str	r1, [sp, #124]	@ 0x7c
1000270a:	401c      	ands	r4, r3
1000270c:	421a      	tst	r2, r3
1000270e:	d000      	beq.n	10002712 <_ftoa+0x2a2>
10002710:	e6fc      	b.n	1000250c <_ftoa+0x9c>
10002712:	2200      	movs	r2, #0
10002714:	4b31      	ldr	r3, [pc, #196]	@ (100027dc <_ftoa+0x36c>)
10002716:	2706      	movs	r7, #6
10002718:	9206      	str	r2, [sp, #24]
1000271a:	9307      	str	r3, [sp, #28]
1000271c:	e70d      	b.n	1000253a <_ftoa+0xca>
1000271e:	9b22      	ldr	r3, [sp, #136]	@ 0x88
10002720:	9303      	str	r3, [sp, #12]
10002722:	9b21      	ldr	r3, [sp, #132]	@ 0x84
10002724:	9302      	str	r3, [sp, #8]
10002726:	2304      	movs	r3, #4
10002728:	9301      	str	r3, [sp, #4]
1000272a:	4b2d      	ldr	r3, [pc, #180]	@ (100027e0 <_ftoa+0x370>)
1000272c:	e77b      	b.n	10002626 <_ftoa+0x1b6>
1000272e:	2200      	movs	r2, #0
10002730:	9808      	ldr	r0, [sp, #32]
10002732:	9909      	ldr	r1, [sp, #36]	@ 0x24
10002734:	4b26      	ldr	r3, [pc, #152]	@ (100027d0 <_ftoa+0x360>)
10002736:	f001 f937 	bl	100039a8 <__wrap___aeabi_dcmplt>
1000273a:	2800      	cmp	r0, #0
1000273c:	d000      	beq.n	10002740 <_ftoa+0x2d0>
1000273e:	e72f      	b.n	100025a0 <_ftoa+0x130>
10002740:	2e00      	cmp	r6, #0
10002742:	d14f      	bne.n	100027e4 <_ftoa+0x374>
10002744:	3601      	adds	r6, #1
10002746:	e72b      	b.n	100025a0 <_ftoa+0x130>
10002748:	2303      	movs	r3, #3
1000274a:	9a22      	ldr	r2, [sp, #136]	@ 0x88
1000274c:	4013      	ands	r3, r2
1000274e:	2b01      	cmp	r3, #1
10002750:	d068      	beq.n	10002824 <_ftoa+0x3b4>
10002752:	2c20      	cmp	r4, #32
10002754:	d0a6      	beq.n	100026a4 <_ftoa+0x234>
10002756:	9b0b      	ldr	r3, [sp, #44]	@ 0x2c
10002758:	2b00      	cmp	r3, #0
1000275a:	d01f      	beq.n	1000279c <_ftoa+0x32c>
1000275c:	232d      	movs	r3, #45	@ 0x2d
1000275e:	4652      	mov	r2, sl
10002760:	5513      	strb	r3, [r2, r4]
10002762:	3401      	adds	r4, #1
10002764:	e79e      	b.n	100026a4 <_ftoa+0x234>
10002766:	4655      	mov	r5, sl
10002768:	2c20      	cmp	r4, #32
1000276a:	d0b9      	beq.n	100026e0 <_ftoa+0x270>
1000276c:	2230      	movs	r2, #48	@ 0x30
1000276e:	193b      	adds	r3, r7, r4
10002770:	2f00      	cmp	r7, #0
10002772:	d04b      	beq.n	1000280c <_ftoa+0x39c>
10002774:	2017      	movs	r0, #23
10002776:	a906      	add	r1, sp, #24
10002778:	3401      	adds	r4, #1
1000277a:	1809      	adds	r1, r1, r0
1000277c:	550a      	strb	r2, [r1, r4]
1000277e:	2c20      	cmp	r4, #32
10002780:	d0ae      	beq.n	100026e0 <_ftoa+0x270>
10002782:	429c      	cmp	r4, r3
10002784:	d1f6      	bne.n	10002774 <_ftoa+0x304>
10002786:	aa0c      	add	r2, sp, #48	@ 0x30
10002788:	4692      	mov	sl, r2
1000278a:	222e      	movs	r2, #46	@ 0x2e
1000278c:	4651      	mov	r1, sl
1000278e:	1c5c      	adds	r4, r3, #1
10002790:	54ca      	strb	r2, [r1, r3]
10002792:	e762      	b.n	1000265a <_ftoa+0x1ea>
10002794:	2420      	movs	r4, #32
10002796:	e6cc      	b.n	10002532 <_ftoa+0xc2>
10002798:	2c20      	cmp	r4, #32
1000279a:	d083      	beq.n	100026a4 <_ftoa+0x234>
1000279c:	9b22      	ldr	r3, [sp, #136]	@ 0x88
1000279e:	075b      	lsls	r3, r3, #29
100027a0:	d408      	bmi.n	100027b4 <_ftoa+0x344>
100027a2:	9b22      	ldr	r3, [sp, #136]	@ 0x88
100027a4:	071b      	lsls	r3, r3, #28
100027a6:	d400      	bmi.n	100027aa <_ftoa+0x33a>
100027a8:	e77c      	b.n	100026a4 <_ftoa+0x234>
100027aa:	2320      	movs	r3, #32
100027ac:	4652      	mov	r2, sl
100027ae:	5513      	strb	r3, [r2, r4]
100027b0:	3401      	adds	r4, #1
100027b2:	e777      	b.n	100026a4 <_ftoa+0x234>
100027b4:	232b      	movs	r3, #43	@ 0x2b
100027b6:	4652      	mov	r2, sl
100027b8:	5513      	strb	r3, [r2, r4]
100027ba:	3401      	adds	r4, #1
100027bc:	e772      	b.n	100026a4 <_ftoa+0x234>
100027be:	46c0      	nop			@ (mov r8, r8)
100027c0:	ffefffff 	.word	0xffefffff
100027c4:	7fefffff 	.word	0x7fefffff
100027c8:	41cdcd65 	.word	0x41cdcd65
100027cc:	c1cdcd65 	.word	0xc1cdcd65
100027d0:	3fe00000 	.word	0x3fe00000
100027d4:	100049a8 	.word	0x100049a8
100027d8:	100049a0 	.word	0x100049a0
100027dc:	412e8480 	.word	0x412e8480
100027e0:	100049b0 	.word	0x100049b0
100027e4:	07f3      	lsls	r3, r6, #31
100027e6:	d400      	bmi.n	100027ea <_ftoa+0x37a>
100027e8:	e6da      	b.n	100025a0 <_ftoa+0x130>
100027ea:	3601      	adds	r6, #1
100027ec:	e6d8      	b.n	100025a0 <_ftoa+0x130>
100027ee:	9b21      	ldr	r3, [sp, #132]	@ 0x84
100027f0:	3b01      	subs	r3, #1
100027f2:	9321      	str	r3, [sp, #132]	@ 0x84
100027f4:	42a3      	cmp	r3, r4
100027f6:	d900      	bls.n	100027fa <_ftoa+0x38a>
100027f8:	e746      	b.n	10002688 <_ftoa+0x218>
100027fa:	e7aa      	b.n	10002752 <_ftoa+0x2e2>
100027fc:	9b22      	ldr	r3, [sp, #136]	@ 0x88
100027fe:	9303      	str	r3, [sp, #12]
10002800:	9b21      	ldr	r3, [sp, #132]	@ 0x84
10002802:	9302      	str	r3, [sp, #8]
10002804:	2303      	movs	r3, #3
10002806:	9301      	str	r3, [sp, #4]
10002808:	4b08      	ldr	r3, [pc, #32]	@ (1000282c <_ftoa+0x3bc>)
1000280a:	e70c      	b.n	10002626 <_ftoa+0x1b6>
1000280c:	0023      	movs	r3, r4
1000280e:	e7ba      	b.n	10002786 <_ftoa+0x316>
10002810:	4b07      	ldr	r3, [pc, #28]	@ (10002830 <_ftoa+0x3c0>)
10002812:	00ea      	lsls	r2, r5, #3
10002814:	189b      	adds	r3, r3, r2
10002816:	685c      	ldr	r4, [r3, #4]
10002818:	681b      	ldr	r3, [r3, #0]
1000281a:	002f      	movs	r7, r5
1000281c:	9306      	str	r3, [sp, #24]
1000281e:	9407      	str	r4, [sp, #28]
10002820:	2400      	movs	r4, #0
10002822:	e68a      	b.n	1000253a <_ftoa+0xca>
10002824:	9b21      	ldr	r3, [sp, #132]	@ 0x84
10002826:	2b00      	cmp	r3, #0
10002828:	d093      	beq.n	10002752 <_ftoa+0x2e2>
1000282a:	e720      	b.n	1000266e <_ftoa+0x1fe>
1000282c:	100049ac 	.word	0x100049ac
10002830:	10004b58 	.word	0x10004b58

10002834 <_vsnprintf>:
10002834:	b5f0      	push	{r4, r5, r6, r7, lr}
10002836:	46de      	mov	lr, fp
10002838:	4657      	mov	r7, sl
1000283a:	464e      	mov	r6, r9
1000283c:	4645      	mov	r5, r8
1000283e:	b5e0      	push	{r5, r6, r7, lr}
10002840:	b09f      	sub	sp, #124	@ 0x7c
10002842:	001c      	movs	r4, r3
10002844:	9b28      	ldr	r3, [sp, #160]	@ 0xa0
10002846:	4693      	mov	fp, r2
10002848:	930a      	str	r3, [sp, #40]	@ 0x28
1000284a:	4acc      	ldr	r2, [pc, #816]	@ (10002b7c <_vsnprintf+0x348>)
1000284c:	4bcc      	ldr	r3, [pc, #816]	@ (10002b80 <_vsnprintf+0x34c>)
1000284e:	468a      	mov	sl, r1
10002850:	9009      	str	r0, [sp, #36]	@ 0x24
10002852:	601a      	str	r2, [r3, #0]
10002854:	2900      	cmp	r1, #0
10002856:	d100      	bne.n	1000285a <_vsnprintf+0x26>
10002858:	e14d      	b.n	10002af6 <_vsnprintf+0x2c2>
1000285a:	2300      	movs	r3, #0
1000285c:	7820      	ldrb	r0, [r4, #0]
1000285e:	4699      	mov	r9, r3
10002860:	2800      	cmp	r0, #0
10002862:	d100      	bne.n	10002866 <_vsnprintf+0x32>
10002864:	e14f      	b.n	10002b06 <_vsnprintf+0x2d2>
10002866:	4bc7      	ldr	r3, [pc, #796]	@ (10002b84 <_vsnprintf+0x350>)
10002868:	464d      	mov	r5, r9
1000286a:	9308      	str	r3, [sp, #32]
1000286c:	4bc6      	ldr	r3, [pc, #792]	@ (10002b88 <_vsnprintf+0x354>)
1000286e:	930d      	str	r3, [sp, #52]	@ 0x34
10002870:	e00a      	b.n	10002888 <_vsnprintf+0x54>
10002872:	002a      	movs	r2, r5
10002874:	1c6e      	adds	r6, r5, #1
10002876:	465b      	mov	r3, fp
10002878:	9d09      	ldr	r5, [sp, #36]	@ 0x24
1000287a:	4651      	mov	r1, sl
1000287c:	47a8      	blx	r5
1000287e:	0035      	movs	r5, r6
10002880:	3401      	adds	r4, #1
10002882:	7820      	ldrb	r0, [r4, #0]
10002884:	2800      	cmp	r0, #0
10002886:	d072      	beq.n	1000296e <_vsnprintf+0x13a>
10002888:	2825      	cmp	r0, #37	@ 0x25
1000288a:	d1f2      	bne.n	10002872 <_vsnprintf+0x3e>
1000288c:	2310      	movs	r3, #16
1000288e:	4699      	mov	r9, r3
10002890:	3b08      	subs	r3, #8
10002892:	4698      	mov	r8, r3
10002894:	3b04      	subs	r3, #4
10002896:	2100      	movs	r1, #0
10002898:	469c      	mov	ip, r3
1000289a:	2702      	movs	r7, #2
1000289c:	3401      	adds	r4, #1
1000289e:	7820      	ldrb	r0, [r4, #0]
100028a0:	0026      	movs	r6, r4
100028a2:	0003      	movs	r3, r0
100028a4:	3b20      	subs	r3, #32
100028a6:	b2db      	uxtb	r3, r3
100028a8:	2b10      	cmp	r3, #16
100028aa:	d803      	bhi.n	100028b4 <_vsnprintf+0x80>
100028ac:	9a08      	ldr	r2, [sp, #32]
100028ae:	009b      	lsls	r3, r3, #2
100028b0:	58d3      	ldr	r3, [r2, r3]
100028b2:	469f      	mov	pc, r3
100028b4:	0003      	movs	r3, r0
100028b6:	3b30      	subs	r3, #48	@ 0x30
100028b8:	2b09      	cmp	r3, #9
100028ba:	d96e      	bls.n	1000299a <_vsnprintf+0x166>
100028bc:	2700      	movs	r7, #0
100028be:	282a      	cmp	r0, #42	@ 0x2a
100028c0:	d100      	bne.n	100028c4 <_vsnprintf+0x90>
100028c2:	e08a      	b.n	100029da <_vsnprintf+0x1a6>
100028c4:	2300      	movs	r3, #0
100028c6:	930b      	str	r3, [sp, #44]	@ 0x2c
100028c8:	282e      	cmp	r0, #46	@ 0x2e
100028ca:	d100      	bne.n	100028ce <_vsnprintf+0x9a>
100028cc:	e076      	b.n	100029bc <_vsnprintf+0x188>
100028ce:	0003      	movs	r3, r0
100028d0:	3b68      	subs	r3, #104	@ 0x68
100028d2:	b2db      	uxtb	r3, r3
100028d4:	2b12      	cmp	r3, #18
100028d6:	d81b      	bhi.n	10002910 <_vsnprintf+0xdc>
100028d8:	4cac      	ldr	r4, [pc, #688]	@ (10002b8c <_vsnprintf+0x358>)
100028da:	009b      	lsls	r3, r3, #2
100028dc:	58e3      	ldr	r3, [r4, r3]
100028de:	469f      	mov	pc, r3
100028e0:	2301      	movs	r3, #1
100028e2:	3401      	adds	r4, #1
100028e4:	4319      	orrs	r1, r3
100028e6:	e7da      	b.n	1000289e <_vsnprintf+0x6a>
100028e8:	4339      	orrs	r1, r7
100028ea:	3401      	adds	r4, #1
100028ec:	e7d7      	b.n	1000289e <_vsnprintf+0x6a>
100028ee:	4663      	mov	r3, ip
100028f0:	3401      	adds	r4, #1
100028f2:	4319      	orrs	r1, r3
100028f4:	e7d3      	b.n	1000289e <_vsnprintf+0x6a>
100028f6:	464b      	mov	r3, r9
100028f8:	3401      	adds	r4, #1
100028fa:	4319      	orrs	r1, r3
100028fc:	e7cf      	b.n	1000289e <_vsnprintf+0x6a>
100028fe:	4643      	mov	r3, r8
10002900:	3401      	adds	r4, #1
10002902:	4319      	orrs	r1, r3
10002904:	e7cb      	b.n	1000289e <_vsnprintf+0x6a>
10002906:	2380      	movs	r3, #128	@ 0x80
10002908:	005b      	lsls	r3, r3, #1
1000290a:	7870      	ldrb	r0, [r6, #1]
1000290c:	4319      	orrs	r1, r3
1000290e:	3601      	adds	r6, #1
10002910:	2867      	cmp	r0, #103	@ 0x67
10002912:	d80a      	bhi.n	1000292a <_vsnprintf+0xf6>
10002914:	2824      	cmp	r0, #36	@ 0x24
10002916:	d91f      	bls.n	10002958 <_vsnprintf+0x124>
10002918:	0003      	movs	r3, r0
1000291a:	3b25      	subs	r3, #37	@ 0x25
1000291c:	b2db      	uxtb	r3, r3
1000291e:	2b42      	cmp	r3, #66	@ 0x42
10002920:	d81a      	bhi.n	10002958 <_vsnprintf+0x124>
10002922:	9a0d      	ldr	r2, [sp, #52]	@ 0x34
10002924:	009b      	lsls	r3, r3, #2
10002926:	58d3      	ldr	r3, [r2, r3]
10002928:	469f      	mov	pc, r3
1000292a:	0003      	movs	r3, r0
1000292c:	3b69      	subs	r3, #105	@ 0x69
1000292e:	b2db      	uxtb	r3, r3
10002930:	2b0f      	cmp	r3, #15
10002932:	d811      	bhi.n	10002958 <_vsnprintf+0x124>
10002934:	2401      	movs	r4, #1
10002936:	409c      	lsls	r4, r3
10002938:	4a95      	ldr	r2, [pc, #596]	@ (10002b90 <_vsnprintf+0x35c>)
1000293a:	46a4      	mov	ip, r4
1000293c:	4690      	mov	r8, r2
1000293e:	4014      	ands	r4, r2
10002940:	940c      	str	r4, [sp, #48]	@ 0x30
10002942:	4662      	mov	r2, ip
10002944:	4644      	mov	r4, r8
10002946:	4222      	tst	r2, r4
10002948:	d000      	beq.n	1000294c <_vsnprintf+0x118>
1000294a:	e225      	b.n	10002d98 <_vsnprintf+0x564>
1000294c:	2b0a      	cmp	r3, #10
1000294e:	d100      	bne.n	10002952 <_vsnprintf+0x11e>
10002950:	e101      	b.n	10002b56 <_vsnprintf+0x322>
10002952:	2b07      	cmp	r3, #7
10002954:	d100      	bne.n	10002958 <_vsnprintf+0x124>
10002956:	e0d8      	b.n	10002b0a <_vsnprintf+0x2d6>
10002958:	9c09      	ldr	r4, [sp, #36]	@ 0x24
1000295a:	002a      	movs	r2, r5
1000295c:	465b      	mov	r3, fp
1000295e:	4651      	mov	r1, sl
10002960:	47a0      	blx	r4
10002962:	7870      	ldrb	r0, [r6, #1]
10002964:	1c6f      	adds	r7, r5, #1
10002966:	1c74      	adds	r4, r6, #1
10002968:	003d      	movs	r5, r7
1000296a:	2800      	cmp	r0, #0
1000296c:	d18c      	bne.n	10002888 <_vsnprintf+0x54>
1000296e:	46a9      	mov	r9, r5
10002970:	002c      	movs	r4, r5
10002972:	45cb      	cmp	fp, r9
10002974:	d803      	bhi.n	1000297e <_vsnprintf+0x14a>
10002976:	2301      	movs	r3, #1
10002978:	425b      	negs	r3, r3
1000297a:	445b      	add	r3, fp
1000297c:	4699      	mov	r9, r3
1000297e:	465b      	mov	r3, fp
10002980:	464a      	mov	r2, r9
10002982:	4651      	mov	r1, sl
10002984:	2000      	movs	r0, #0
10002986:	9d09      	ldr	r5, [sp, #36]	@ 0x24
10002988:	47a8      	blx	r5
1000298a:	0020      	movs	r0, r4
1000298c:	b01f      	add	sp, #124	@ 0x7c
1000298e:	bcf0      	pop	{r4, r5, r6, r7}
10002990:	46bb      	mov	fp, r7
10002992:	46b2      	mov	sl, r6
10002994:	46a9      	mov	r9, r5
10002996:	46a0      	mov	r8, r4
10002998:	bdf0      	pop	{r4, r5, r6, r7, pc}
1000299a:	2700      	movs	r7, #0
1000299c:	00bb      	lsls	r3, r7, #2
1000299e:	19df      	adds	r7, r3, r7
100029a0:	3601      	adds	r6, #1
100029a2:	007f      	lsls	r7, r7, #1
100029a4:	183f      	adds	r7, r7, r0
100029a6:	7830      	ldrb	r0, [r6, #0]
100029a8:	3f30      	subs	r7, #48	@ 0x30
100029aa:	0003      	movs	r3, r0
100029ac:	3b30      	subs	r3, #48	@ 0x30
100029ae:	2b09      	cmp	r3, #9
100029b0:	d9f4      	bls.n	1000299c <_vsnprintf+0x168>
100029b2:	2300      	movs	r3, #0
100029b4:	930b      	str	r3, [sp, #44]	@ 0x2c
100029b6:	282e      	cmp	r0, #46	@ 0x2e
100029b8:	d000      	beq.n	100029bc <_vsnprintf+0x188>
100029ba:	e788      	b.n	100028ce <_vsnprintf+0x9a>
100029bc:	2380      	movs	r3, #128	@ 0x80
100029be:	7870      	ldrb	r0, [r6, #1]
100029c0:	00db      	lsls	r3, r3, #3
100029c2:	4319      	orrs	r1, r3
100029c4:	0003      	movs	r3, r0
100029c6:	3b30      	subs	r3, #48	@ 0x30
100029c8:	1c74      	adds	r4, r6, #1
100029ca:	2b09      	cmp	r3, #9
100029cc:	d800      	bhi.n	100029d0 <_vsnprintf+0x19c>
100029ce:	e12c      	b.n	10002c2a <_vsnprintf+0x3f6>
100029d0:	282a      	cmp	r0, #42	@ 0x2a
100029d2:	d100      	bne.n	100029d6 <_vsnprintf+0x1a2>
100029d4:	e138      	b.n	10002c48 <_vsnprintf+0x414>
100029d6:	0026      	movs	r6, r4
100029d8:	e779      	b.n	100028ce <_vsnprintf+0x9a>
100029da:	9b0a      	ldr	r3, [sp, #40]	@ 0x28
100029dc:	cb80      	ldmia	r3!, {r7}
100029de:	2f00      	cmp	r7, #0
100029e0:	db03      	blt.n	100029ea <_vsnprintf+0x1b6>
100029e2:	7860      	ldrb	r0, [r4, #1]
100029e4:	930a      	str	r3, [sp, #40]	@ 0x28
100029e6:	1c66      	adds	r6, r4, #1
100029e8:	e76c      	b.n	100028c4 <_vsnprintf+0x90>
100029ea:	2202      	movs	r2, #2
100029ec:	7860      	ldrb	r0, [r4, #1]
100029ee:	4311      	orrs	r1, r2
100029f0:	427f      	negs	r7, r7
100029f2:	930a      	str	r3, [sp, #40]	@ 0x28
100029f4:	1c66      	adds	r6, r4, #1
100029f6:	e765      	b.n	100028c4 <_vsnprintf+0x90>
100029f8:	2867      	cmp	r0, #103	@ 0x67
100029fa:	d100      	bne.n	100029fe <_vsnprintf+0x1ca>
100029fc:	e1c8      	b.n	10002d90 <_vsnprintf+0x55c>
100029fe:	2847      	cmp	r0, #71	@ 0x47
10002a00:	d100      	bne.n	10002a04 <_vsnprintf+0x1d0>
10002a02:	e204      	b.n	10002e0e <_vsnprintf+0x5da>
10002a04:	2845      	cmp	r0, #69	@ 0x45
10002a06:	d100      	bne.n	10002a0a <_vsnprintf+0x1d6>
10002a08:	e204      	b.n	10002e14 <_vsnprintf+0x5e0>
10002a0a:	2007      	movs	r0, #7
10002a0c:	9b0a      	ldr	r3, [sp, #40]	@ 0x28
10002a0e:	9104      	str	r1, [sp, #16]
10002a10:	3307      	adds	r3, #7
10002a12:	4383      	bics	r3, r0
10002a14:	0019      	movs	r1, r3
10002a16:	9a0b      	ldr	r2, [sp, #44]	@ 0x2c
10002a18:	9703      	str	r7, [sp, #12]
10002a1a:	9202      	str	r2, [sp, #8]
10002a1c:	c90c      	ldmia	r1!, {r2, r3}
10002a1e:	9809      	ldr	r0, [sp, #36]	@ 0x24
10002a20:	9200      	str	r2, [sp, #0]
10002a22:	9301      	str	r3, [sp, #4]
10002a24:	910a      	str	r1, [sp, #40]	@ 0x28
10002a26:	002a      	movs	r2, r5
10002a28:	465b      	mov	r3, fp
10002a2a:	4651      	mov	r1, sl
10002a2c:	f7ff faf6 	bl	1000201c <_etoa>
10002a30:	1c74      	adds	r4, r6, #1
10002a32:	0005      	movs	r5, r0
10002a34:	e725      	b.n	10002882 <_vsnprintf+0x4e>
10002a36:	7870      	ldrb	r0, [r6, #1]
10002a38:	286c      	cmp	r0, #108	@ 0x6c
10002a3a:	d100      	bne.n	10002a3e <_vsnprintf+0x20a>
10002a3c:	e20d      	b.n	10002e5a <_vsnprintf+0x626>
10002a3e:	2380      	movs	r3, #128	@ 0x80
10002a40:	005b      	lsls	r3, r3, #1
10002a42:	4319      	orrs	r1, r3
10002a44:	3601      	adds	r6, #1
10002a46:	e763      	b.n	10002910 <_vsnprintf+0xdc>
10002a48:	2380      	movs	r3, #128	@ 0x80
10002a4a:	009b      	lsls	r3, r3, #2
10002a4c:	7870      	ldrb	r0, [r6, #1]
10002a4e:	4319      	orrs	r1, r3
10002a50:	3601      	adds	r6, #1
10002a52:	e75d      	b.n	10002910 <_vsnprintf+0xdc>
10002a54:	7870      	ldrb	r0, [r6, #1]
10002a56:	2868      	cmp	r0, #104	@ 0x68
10002a58:	d100      	bne.n	10002a5c <_vsnprintf+0x228>
10002a5a:	e1f9      	b.n	10002e50 <_vsnprintf+0x61c>
10002a5c:	2380      	movs	r3, #128	@ 0x80
10002a5e:	3601      	adds	r6, #1
10002a60:	4319      	orrs	r1, r3
10002a62:	e755      	b.n	10002910 <_vsnprintf+0xdc>
10002a64:	2846      	cmp	r0, #70	@ 0x46
10002a66:	d100      	bne.n	10002a6a <_vsnprintf+0x236>
10002a68:	e18f      	b.n	10002d8a <_vsnprintf+0x556>
10002a6a:	2007      	movs	r0, #7
10002a6c:	9b0a      	ldr	r3, [sp, #40]	@ 0x28
10002a6e:	9104      	str	r1, [sp, #16]
10002a70:	3307      	adds	r3, #7
10002a72:	4383      	bics	r3, r0
10002a74:	0019      	movs	r1, r3
10002a76:	9a0b      	ldr	r2, [sp, #44]	@ 0x2c
10002a78:	9703      	str	r7, [sp, #12]
10002a7a:	9202      	str	r2, [sp, #8]
10002a7c:	c90c      	ldmia	r1!, {r2, r3}
10002a7e:	9809      	ldr	r0, [sp, #36]	@ 0x24
10002a80:	9200      	str	r2, [sp, #0]
10002a82:	9301      	str	r3, [sp, #4]
10002a84:	910a      	str	r1, [sp, #40]	@ 0x28
10002a86:	002a      	movs	r2, r5
10002a88:	465b      	mov	r3, fp
10002a8a:	4651      	mov	r1, sl
10002a8c:	f7ff fcf0 	bl	10002470 <_ftoa>
10002a90:	1c74      	adds	r4, r6, #1
10002a92:	0005      	movs	r5, r0
10002a94:	e6f5      	b.n	10002882 <_vsnprintf+0x4e>
10002a96:	002a      	movs	r2, r5
10002a98:	9c09      	ldr	r4, [sp, #36]	@ 0x24
10002a9a:	465b      	mov	r3, fp
10002a9c:	4651      	mov	r1, sl
10002a9e:	2025      	movs	r0, #37	@ 0x25
10002aa0:	1c6f      	adds	r7, r5, #1
10002aa2:	47a0      	blx	r4
10002aa4:	003d      	movs	r5, r7
10002aa6:	1c74      	adds	r4, r6, #1
10002aa8:	e6eb      	b.n	10002882 <_vsnprintf+0x4e>
10002aaa:	0789      	lsls	r1, r1, #30
10002aac:	d400      	bmi.n	10002ab0 <_vsnprintf+0x27c>
10002aae:	e1de      	b.n	10002e6e <_vsnprintf+0x63a>
10002ab0:	9b0a      	ldr	r3, [sp, #40]	@ 0x28
10002ab2:	002a      	movs	r2, r5
10002ab4:	4698      	mov	r8, r3
10002ab6:	1c6b      	adds	r3, r5, #1
10002ab8:	4699      	mov	r9, r3
10002aba:	4643      	mov	r3, r8
10002abc:	cb01      	ldmia	r3!, {r0}
10002abe:	4651      	mov	r1, sl
10002ac0:	4698      	mov	r8, r3
10002ac2:	9c09      	ldr	r4, [sp, #36]	@ 0x24
10002ac4:	465b      	mov	r3, fp
10002ac6:	b2c0      	uxtb	r0, r0
10002ac8:	47a0      	blx	r4
10002aca:	19ed      	adds	r5, r5, r7
10002acc:	2f01      	cmp	r7, #1
10002ace:	d800      	bhi.n	10002ad2 <_vsnprintf+0x29e>
10002ad0:	e293      	b.n	10002ffa <_vsnprintf+0x7c6>
10002ad2:	464c      	mov	r4, r9
10002ad4:	46b1      	mov	r9, r6
10002ad6:	4656      	mov	r6, sl
10002ad8:	9f09      	ldr	r7, [sp, #36]	@ 0x24
10002ada:	0022      	movs	r2, r4
10002adc:	465b      	mov	r3, fp
10002ade:	3401      	adds	r4, #1
10002ae0:	0031      	movs	r1, r6
10002ae2:	2020      	movs	r0, #32
10002ae4:	47b8      	blx	r7
10002ae6:	42ac      	cmp	r4, r5
10002ae8:	d1f7      	bne.n	10002ada <_vsnprintf+0x2a6>
10002aea:	46b2      	mov	sl, r6
10002aec:	4643      	mov	r3, r8
10002aee:	464e      	mov	r6, r9
10002af0:	930a      	str	r3, [sp, #40]	@ 0x28
10002af2:	1c74      	adds	r4, r6, #1
10002af4:	e6c5      	b.n	10002882 <_vsnprintf+0x4e>
10002af6:	4b27      	ldr	r3, [pc, #156]	@ (10002b94 <_vsnprintf+0x360>)
10002af8:	7820      	ldrb	r0, [r4, #0]
10002afa:	9309      	str	r3, [sp, #36]	@ 0x24
10002afc:	2300      	movs	r3, #0
10002afe:	4699      	mov	r9, r3
10002b00:	2800      	cmp	r0, #0
10002b02:	d000      	beq.n	10002b06 <_vsnprintf+0x2d2>
10002b04:	e6af      	b.n	10002866 <_vsnprintf+0x32>
10002b06:	2400      	movs	r4, #0
10002b08:	e733      	b.n	10002972 <_vsnprintf+0x13e>
10002b0a:	9b0a      	ldr	r3, [sp, #40]	@ 0x28
10002b0c:	001a      	movs	r2, r3
10002b0e:	ca08      	ldmia	r2!, {r3}
10002b10:	4690      	mov	r8, r2
10002b12:	2b00      	cmp	r3, #0
10002b14:	d100      	bne.n	10002b18 <_vsnprintf+0x2e4>
10002b16:	e0a7      	b.n	10002c68 <_vsnprintf+0x434>
10002b18:	2021      	movs	r0, #33	@ 0x21
10002b1a:	4308      	orrs	r0, r1
10002b1c:	a90e      	add	r1, sp, #56	@ 0x38
10002b1e:	468c      	mov	ip, r1
10002b20:	221f      	movs	r2, #31
10002b22:	4462      	add	r2, ip
10002b24:	270f      	movs	r7, #15
10002b26:	46ac      	mov	ip, r5
10002b28:	4681      	mov	r9, r0
10002b2a:	0015      	movs	r5, r2
10002b2c:	9c0c      	ldr	r4, [sp, #48]	@ 0x30
10002b2e:	e002      	b.n	10002b36 <_vsnprintf+0x302>
10002b30:	2c20      	cmp	r4, #32
10002b32:	d00c      	beq.n	10002b4e <_vsnprintf+0x31a>
10002b34:	0013      	movs	r3, r2
10002b36:	0038      	movs	r0, r7
10002b38:	4018      	ands	r0, r3
10002b3a:	0001      	movs	r1, r0
10002b3c:	3137      	adds	r1, #55	@ 0x37
10002b3e:	2809      	cmp	r0, #9
10002b40:	d800      	bhi.n	10002b44 <_vsnprintf+0x310>
10002b42:	3907      	subs	r1, #7
10002b44:	3401      	adds	r4, #1
10002b46:	5529      	strb	r1, [r5, r4]
10002b48:	091a      	lsrs	r2, r3, #4
10002b4a:	2b0f      	cmp	r3, #15
10002b4c:	d8f0      	bhi.n	10002b30 <_vsnprintf+0x2fc>
10002b4e:	4665      	mov	r5, ip
10002b50:	4648      	mov	r0, r9
10002b52:	940c      	str	r4, [sp, #48]	@ 0x30
10002b54:	e094      	b.n	10002c80 <_vsnprintf+0x44c>
10002b56:	9b0a      	ldr	r3, [sp, #40]	@ 0x28
10002b58:	001a      	movs	r2, r3
10002b5a:	ca08      	ldmia	r2!, {r3}
10002b5c:	9212      	str	r2, [sp, #72]	@ 0x48
10002b5e:	9a0b      	ldr	r2, [sp, #44]	@ 0x2c
10002b60:	2a00      	cmp	r2, #0
10002b62:	d17b      	bne.n	10002c5c <_vsnprintf+0x428>
10002b64:	2402      	movs	r4, #2
10002b66:	781a      	ldrb	r2, [r3, #0]
10002b68:	4264      	negs	r4, r4
10002b6a:	2a00      	cmp	r2, #0
10002b6c:	d01d      	beq.n	10002baa <_vsnprintf+0x376>
10002b6e:	3401      	adds	r4, #1
10002b70:	1918      	adds	r0, r3, r4
10002b72:	469c      	mov	ip, r3
10002b74:	001c      	movs	r4, r3
10002b76:	0003      	movs	r3, r0
10002b78:	e010      	b.n	10002b9c <_vsnprintf+0x368>
10002b7a:	46c0      	nop			@ (mov r8, r8)
10002b7c:	10002835 	.word	0x10002835
10002b80:	20000514 	.word	0x20000514
10002b84:	100049b8 	.word	0x100049b8
10002b88:	10004a48 	.word	0x10004a48
10002b8c:	100049fc 	.word	0x100049fc
10002b90:	00009041 	.word	0x00009041
10002b94:	10001d75 	.word	0x10001d75
10002b98:	429c      	cmp	r4, r3
10002b9a:	d003      	beq.n	10002ba4 <_vsnprintf+0x370>
10002b9c:	7860      	ldrb	r0, [r4, #1]
10002b9e:	3401      	adds	r4, #1
10002ba0:	2800      	cmp	r0, #0
10002ba2:	d1f9      	bne.n	10002b98 <_vsnprintf+0x364>
10002ba4:	4663      	mov	r3, ip
10002ba6:	1ae0      	subs	r0, r4, r3
10002ba8:	900c      	str	r0, [sp, #48]	@ 0x30
10002baa:	2080      	movs	r0, #128	@ 0x80
10002bac:	00c0      	lsls	r0, r0, #3
10002bae:	4684      	mov	ip, r0
10002bb0:	4008      	ands	r0, r1
10002bb2:	4680      	mov	r8, r0
10002bb4:	4660      	mov	r0, ip
10002bb6:	4201      	tst	r1, r0
10002bb8:	d004      	beq.n	10002bc4 <_vsnprintf+0x390>
10002bba:	980b      	ldr	r0, [sp, #44]	@ 0x2c
10002bbc:	9c0c      	ldr	r4, [sp, #48]	@ 0x30
10002bbe:	4284      	cmp	r4, r0
10002bc0:	d900      	bls.n	10002bc4 <_vsnprintf+0x390>
10002bc2:	900c      	str	r0, [sp, #48]	@ 0x30
10002bc4:	2002      	movs	r0, #2
10002bc6:	4684      	mov	ip, r0
10002bc8:	4008      	ands	r0, r1
10002bca:	900a      	str	r0, [sp, #40]	@ 0x28
10002bcc:	4660      	mov	r0, ip
10002bce:	4208      	tst	r0, r1
10002bd0:	d100      	bne.n	10002bd4 <_vsnprintf+0x3a0>
10002bd2:	e189      	b.n	10002ee8 <_vsnprintf+0x6b4>
10002bd4:	1e10      	subs	r0, r2, #0
10002bd6:	d100      	bne.n	10002bda <_vsnprintf+0x3a6>
10002bd8:	e170      	b.n	10002ebc <_vsnprintf+0x688>
10002bda:	4642      	mov	r2, r8
10002bdc:	2a00      	cmp	r2, #0
10002bde:	d100      	bne.n	10002be2 <_vsnprintf+0x3ae>
10002be0:	e11b      	b.n	10002e1a <_vsnprintf+0x5e6>
10002be2:	9a0b      	ldr	r2, [sp, #44]	@ 0x2c
10002be4:	1b5b      	subs	r3, r3, r5
10002be6:	4690      	mov	r8, r2
10002be8:	44a8      	add	r8, r5
10002bea:	4644      	mov	r4, r8
10002bec:	002a      	movs	r2, r5
10002bee:	46b8      	mov	r8, r7
10002bf0:	4699      	mov	r9, r3
10002bf2:	4657      	mov	r7, sl
10002bf4:	46b2      	mov	sl, r6
10002bf6:	9e09      	ldr	r6, [sp, #36]	@ 0x24
10002bf8:	e009      	b.n	10002c0e <_vsnprintf+0x3da>
10002bfa:	465b      	mov	r3, fp
10002bfc:	0039      	movs	r1, r7
10002bfe:	1c55      	adds	r5, r2, #1
10002c00:	47b0      	blx	r6
10002c02:	464b      	mov	r3, r9
10002c04:	5d58      	ldrb	r0, [r3, r5]
10002c06:	2800      	cmp	r0, #0
10002c08:	d100      	bne.n	10002c0c <_vsnprintf+0x3d8>
10002c0a:	e12c      	b.n	10002e66 <_vsnprintf+0x632>
10002c0c:	002a      	movs	r2, r5
10002c0e:	4294      	cmp	r4, r2
10002c10:	d1f3      	bne.n	10002bfa <_vsnprintf+0x3c6>
10002c12:	4656      	mov	r6, sl
10002c14:	0025      	movs	r5, r4
10002c16:	46ba      	mov	sl, r7
10002c18:	4647      	mov	r7, r8
10002c1a:	9b0a      	ldr	r3, [sp, #40]	@ 0x28
10002c1c:	2b00      	cmp	r3, #0
10002c1e:	d000      	beq.n	10002c22 <_vsnprintf+0x3ee>
10002c20:	e14c      	b.n	10002ebc <_vsnprintf+0x688>
10002c22:	9b12      	ldr	r3, [sp, #72]	@ 0x48
10002c24:	1c74      	adds	r4, r6, #1
10002c26:	930a      	str	r3, [sp, #40]	@ 0x28
10002c28:	e62b      	b.n	10002882 <_vsnprintf+0x4e>
10002c2a:	2200      	movs	r2, #0
10002c2c:	0093      	lsls	r3, r2, #2
10002c2e:	189b      	adds	r3, r3, r2
10002c30:	005b      	lsls	r3, r3, #1
10002c32:	3401      	adds	r4, #1
10002c34:	181a      	adds	r2, r3, r0
10002c36:	7820      	ldrb	r0, [r4, #0]
10002c38:	3a30      	subs	r2, #48	@ 0x30
10002c3a:	0003      	movs	r3, r0
10002c3c:	3b30      	subs	r3, #48	@ 0x30
10002c3e:	2b09      	cmp	r3, #9
10002c40:	d9f4      	bls.n	10002c2c <_vsnprintf+0x3f8>
10002c42:	0026      	movs	r6, r4
10002c44:	920b      	str	r2, [sp, #44]	@ 0x2c
10002c46:	e642      	b.n	100028ce <_vsnprintf+0x9a>
10002c48:	9b0a      	ldr	r3, [sp, #40]	@ 0x28
10002c4a:	3602      	adds	r6, #2
10002c4c:	cb04      	ldmia	r3!, {r2}
10002c4e:	43d0      	mvns	r0, r2
10002c50:	17c0      	asrs	r0, r0, #31
10002c52:	4002      	ands	r2, r0
10002c54:	920b      	str	r2, [sp, #44]	@ 0x2c
10002c56:	7830      	ldrb	r0, [r6, #0]
10002c58:	930a      	str	r3, [sp, #40]	@ 0x28
10002c5a:	e638      	b.n	100028ce <_vsnprintf+0x9a>
10002c5c:	781a      	ldrb	r2, [r3, #0]
10002c5e:	2a00      	cmp	r2, #0
10002c60:	d0a3      	beq.n	10002baa <_vsnprintf+0x376>
10002c62:	980b      	ldr	r0, [sp, #44]	@ 0x2c
10002c64:	1e44      	subs	r4, r0, #1
10002c66:	e782      	b.n	10002b6e <_vsnprintf+0x33a>
10002c68:	2310      	movs	r3, #16
10002c6a:	0008      	movs	r0, r1
10002c6c:	2780      	movs	r7, #128	@ 0x80
10002c6e:	4398      	bics	r0, r3
10002c70:	3311      	adds	r3, #17
10002c72:	4318      	orrs	r0, r3
10002c74:	000b      	movs	r3, r1
10002c76:	00ff      	lsls	r7, r7, #3
10002c78:	403b      	ands	r3, r7
10002c7a:	4239      	tst	r1, r7
10002c7c:	d100      	bne.n	10002c80 <_vsnprintf+0x44c>
10002c7e:	e74d      	b.n	10002b1c <_vsnprintf+0x2e8>
10002c80:	2308      	movs	r3, #8
10002c82:	9305      	str	r3, [sp, #20]
10002c84:	9b0b      	ldr	r3, [sp, #44]	@ 0x2c
10002c86:	002a      	movs	r2, r5
10002c88:	9304      	str	r3, [sp, #16]
10002c8a:	2310      	movs	r3, #16
10002c8c:	9303      	str	r3, [sp, #12]
10002c8e:	2300      	movs	r3, #0
10002c90:	9302      	str	r3, [sp, #8]
10002c92:	9b0c      	ldr	r3, [sp, #48]	@ 0x30
10002c94:	9006      	str	r0, [sp, #24]
10002c96:	9301      	str	r3, [sp, #4]
10002c98:	ab16      	add	r3, sp, #88	@ 0x58
10002c9a:	9300      	str	r3, [sp, #0]
10002c9c:	4651      	mov	r1, sl
10002c9e:	465b      	mov	r3, fp
10002ca0:	9809      	ldr	r0, [sp, #36]	@ 0x24
10002ca2:	f7ff f8b1 	bl	10001e08 <_ntoa_format>
10002ca6:	4643      	mov	r3, r8
10002ca8:	0005      	movs	r5, r0
10002caa:	1c74      	adds	r4, r6, #1
10002cac:	930a      	str	r3, [sp, #40]	@ 0x28
10002cae:	e5e8      	b.n	10002882 <_vsnprintf+0x4e>
10002cb0:	2862      	cmp	r0, #98	@ 0x62
10002cb2:	d100      	bne.n	10002cb6 <_vsnprintf+0x482>
10002cb4:	e1a6      	b.n	10003004 <_vsnprintf+0x7d0>
10002cb6:	2858      	cmp	r0, #88	@ 0x58
10002cb8:	d100      	bne.n	10002cbc <_vsnprintf+0x488>
10002cba:	e1b1      	b.n	10003020 <_vsnprintf+0x7ec>
10002cbc:	2380      	movs	r3, #128	@ 0x80
10002cbe:	000a      	movs	r2, r1
10002cc0:	00db      	lsls	r3, r3, #3
10002cc2:	401a      	ands	r2, r3
10002cc4:	4690      	mov	r8, r2
10002cc6:	4219      	tst	r1, r3
10002cc8:	d100      	bne.n	10002ccc <_vsnprintf+0x498>
10002cca:	e189      	b.n	10002fe0 <_vsnprintf+0x7ac>
10002ccc:	2311      	movs	r3, #17
10002cce:	4399      	bics	r1, r3
10002cd0:	468c      	mov	ip, r1
10002cd2:	2380      	movs	r3, #128	@ 0x80
10002cd4:	4662      	mov	r2, ip
10002cd6:	009b      	lsls	r3, r3, #2
10002cd8:	401a      	ands	r2, r3
10002cda:	0010      	movs	r0, r2
10002cdc:	4662      	mov	r2, ip
10002cde:	421a      	tst	r2, r3
10002ce0:	d000      	beq.n	10002ce4 <_vsnprintf+0x4b0>
10002ce2:	e123      	b.n	10002f2c <_vsnprintf+0x6f8>
10002ce4:	2380      	movs	r3, #128	@ 0x80
10002ce6:	4664      	mov	r4, ip
10002ce8:	005b      	lsls	r3, r3, #1
10002cea:	401c      	ands	r4, r3
10002cec:	421a      	tst	r2, r3
10002cee:	d000      	beq.n	10002cf2 <_vsnprintf+0x4be>
10002cf0:	e232      	b.n	10003158 <_vsnprintf+0x924>
10002cf2:	4663      	mov	r3, ip
10002cf4:	065b      	lsls	r3, r3, #25
10002cf6:	d500      	bpl.n	10002cfa <_vsnprintf+0x4c6>
10002cf8:	e16b      	b.n	10002fd2 <_vsnprintf+0x79e>
10002cfa:	4663      	mov	r3, ip
10002cfc:	990a      	ldr	r1, [sp, #40]	@ 0x28
10002cfe:	061b      	lsls	r3, r3, #24
10002d00:	d400      	bmi.n	10002d04 <_vsnprintf+0x4d0>
10002d02:	e2db      	b.n	100032bc <_vsnprintf+0xa88>
10002d04:	c908      	ldmia	r1!, {r3}
10002d06:	b21b      	sxth	r3, r3
10002d08:	17da      	asrs	r2, r3, #31
10002d0a:	1898      	adds	r0, r3, r2
10002d0c:	4050      	eors	r0, r2
10002d0e:	b280      	uxth	r0, r0
10002d10:	910a      	str	r1, [sp, #40]	@ 0x28
10002d12:	0fda      	lsrs	r2, r3, #31
10002d14:	920c      	str	r2, [sp, #48]	@ 0x30
10002d16:	2b00      	cmp	r3, #0
10002d18:	d100      	bne.n	10002d1c <_vsnprintf+0x4e8>
10002d1a:	e218      	b.n	1000314e <_vsnprintf+0x91a>
10002d1c:	4680      	mov	r8, r0
10002d1e:	aa0e      	add	r2, sp, #56	@ 0x38
10002d20:	4691      	mov	r9, r2
10002d22:	231f      	movs	r3, #31
10002d24:	444b      	add	r3, r9
10002d26:	9513      	str	r5, [sp, #76]	@ 0x4c
10002d28:	46e1      	mov	r9, ip
10002d2a:	4645      	mov	r5, r8
10002d2c:	9712      	str	r7, [sp, #72]	@ 0x48
10002d2e:	46b0      	mov	r8, r6
10002d30:	001e      	movs	r6, r3
10002d32:	e001      	b.n	10002d38 <_vsnprintf+0x504>
10002d34:	2c20      	cmp	r4, #32
10002d36:	d00f      	beq.n	10002d58 <_vsnprintf+0x524>
10002d38:	0028      	movs	r0, r5
10002d3a:	210a      	movs	r1, #10
10002d3c:	f000 fb96 	bl	1000346c <__wrap___aeabi_uidiv>
10002d40:	3401      	adds	r4, #1
10002d42:	1937      	adds	r7, r6, r4
10002d44:	3130      	adds	r1, #48	@ 0x30
10002d46:	7039      	strb	r1, [r7, #0]
10002d48:	0028      	movs	r0, r5
10002d4a:	210a      	movs	r1, #10
10002d4c:	f000 fb8e 	bl	1000346c <__wrap___aeabi_uidiv>
10002d50:	002f      	movs	r7, r5
10002d52:	0005      	movs	r5, r0
10002d54:	2f09      	cmp	r7, #9
10002d56:	d8ed      	bhi.n	10002d34 <_vsnprintf+0x500>
10002d58:	4646      	mov	r6, r8
10002d5a:	46cc      	mov	ip, r9
10002d5c:	9f12      	ldr	r7, [sp, #72]	@ 0x48
10002d5e:	9d13      	ldr	r5, [sp, #76]	@ 0x4c
10002d60:	4663      	mov	r3, ip
10002d62:	9306      	str	r3, [sp, #24]
10002d64:	9b0b      	ldr	r3, [sp, #44]	@ 0x2c
10002d66:	9705      	str	r7, [sp, #20]
10002d68:	9304      	str	r3, [sp, #16]
10002d6a:	230a      	movs	r3, #10
10002d6c:	9303      	str	r3, [sp, #12]
10002d6e:	9b0c      	ldr	r3, [sp, #48]	@ 0x30
10002d70:	9302      	str	r3, [sp, #8]
10002d72:	ab16      	add	r3, sp, #88	@ 0x58
10002d74:	002a      	movs	r2, r5
10002d76:	9401      	str	r4, [sp, #4]
10002d78:	9300      	str	r3, [sp, #0]
10002d7a:	4651      	mov	r1, sl
10002d7c:	465b      	mov	r3, fp
10002d7e:	9809      	ldr	r0, [sp, #36]	@ 0x24
10002d80:	f7ff f842 	bl	10001e08 <_ntoa_format>
10002d84:	1c74      	adds	r4, r6, #1
10002d86:	0005      	movs	r5, r0
10002d88:	e57b      	b.n	10002882 <_vsnprintf+0x4e>
10002d8a:	2320      	movs	r3, #32
10002d8c:	4319      	orrs	r1, r3
10002d8e:	e66c      	b.n	10002a6a <_vsnprintf+0x236>
10002d90:	2380      	movs	r3, #128	@ 0x80
10002d92:	011b      	lsls	r3, r3, #4
10002d94:	4319      	orrs	r1, r3
10002d96:	e638      	b.n	10002a0a <_vsnprintf+0x1d6>
10002d98:	2878      	cmp	r0, #120	@ 0x78
10002d9a:	d000      	beq.n	10002d9e <_vsnprintf+0x56a>
10002d9c:	e17c      	b.n	10003098 <_vsnprintf+0x864>
10002d9e:	2380      	movs	r3, #128	@ 0x80
10002da0:	000a      	movs	r2, r1
10002da2:	00db      	lsls	r3, r3, #3
10002da4:	401a      	ands	r2, r3
10002da6:	4691      	mov	r9, r2
10002da8:	4219      	tst	r1, r3
10002daa:	d100      	bne.n	10002dae <_vsnprintf+0x57a>
10002dac:	e2a5      	b.n	100032fa <_vsnprintf+0xac6>
10002dae:	230d      	movs	r3, #13
10002db0:	4399      	bics	r1, r3
10002db2:	0008      	movs	r0, r1
10002db4:	3303      	adds	r3, #3
10002db6:	930c      	str	r3, [sp, #48]	@ 0x30
10002db8:	2380      	movs	r3, #128	@ 0x80
10002dba:	0002      	movs	r2, r0
10002dbc:	009b      	lsls	r3, r3, #2
10002dbe:	401a      	ands	r2, r3
10002dc0:	4690      	mov	r8, r2
10002dc2:	4218      	tst	r0, r3
10002dc4:	d000      	beq.n	10002dc8 <_vsnprintf+0x594>
10002dc6:	e178      	b.n	100030ba <_vsnprintf+0x886>
10002dc8:	2380      	movs	r3, #128	@ 0x80
10002dca:	0004      	movs	r4, r0
10002dcc:	005b      	lsls	r3, r3, #1
10002dce:	401c      	ands	r4, r3
10002dd0:	4218      	tst	r0, r3
10002dd2:	d000      	beq.n	10002dd6 <_vsnprintf+0x5a2>
10002dd4:	e207      	b.n	100031e6 <_vsnprintf+0x9b2>
10002dd6:	0643      	lsls	r3, r0, #25
10002dd8:	d400      	bmi.n	10002ddc <_vsnprintf+0x5a8>
10002dda:	e253      	b.n	10003284 <_vsnprintf+0xa50>
10002ddc:	21ff      	movs	r1, #255	@ 0xff
10002dde:	9b0a      	ldr	r3, [sp, #40]	@ 0x28
10002de0:	cb04      	ldmia	r3!, {r2}
10002de2:	400a      	ands	r2, r1
10002de4:	4690      	mov	r8, r2
10002de6:	930a      	str	r3, [sp, #40]	@ 0x28
10002de8:	4643      	mov	r3, r8
10002dea:	2b00      	cmp	r3, #0
10002dec:	d000      	beq.n	10002df0 <_vsnprintf+0x5bc>
10002dee:	e126      	b.n	1000303e <_vsnprintf+0x80a>
10002df0:	3310      	adds	r3, #16
10002df2:	4398      	bics	r0, r3
10002df4:	464b      	mov	r3, r9
10002df6:	2b00      	cmp	r3, #0
10002df8:	d100      	bne.n	10002dfc <_vsnprintf+0x5c8>
10002dfa:	e120      	b.n	1000303e <_vsnprintf+0x80a>
10002dfc:	2400      	movs	r4, #0
10002dfe:	9b0b      	ldr	r3, [sp, #44]	@ 0x2c
10002e00:	9006      	str	r0, [sp, #24]
10002e02:	9304      	str	r3, [sp, #16]
10002e04:	9b0c      	ldr	r3, [sp, #48]	@ 0x30
10002e06:	9705      	str	r7, [sp, #20]
10002e08:	9303      	str	r3, [sp, #12]
10002e0a:	2300      	movs	r3, #0
10002e0c:	e7b0      	b.n	10002d70 <_vsnprintf+0x53c>
10002e0e:	2380      	movs	r3, #128	@ 0x80
10002e10:	011b      	lsls	r3, r3, #4
10002e12:	4319      	orrs	r1, r3
10002e14:	2320      	movs	r3, #32
10002e16:	4319      	orrs	r1, r3
10002e18:	e5f7      	b.n	10002a0a <_vsnprintf+0x1d6>
10002e1a:	1b5b      	subs	r3, r3, r5
10002e1c:	4699      	mov	r9, r3
10002e1e:	9b0c      	ldr	r3, [sp, #48]	@ 0x30
10002e20:	9c09      	ldr	r4, [sp, #36]	@ 0x24
10002e22:	4698      	mov	r8, r3
10002e24:	465b      	mov	r3, fp
10002e26:	46b3      	mov	fp, r6
10002e28:	4656      	mov	r6, sl
10002e2a:	46ba      	mov	sl, r7
10002e2c:	001f      	movs	r7, r3
10002e2e:	002a      	movs	r2, r5
10002e30:	003b      	movs	r3, r7
10002e32:	0031      	movs	r1, r6
10002e34:	47a0      	blx	r4
10002e36:	464b      	mov	r3, r9
10002e38:	3501      	adds	r5, #1
10002e3a:	5d58      	ldrb	r0, [r3, r5]
10002e3c:	2800      	cmp	r0, #0
10002e3e:	d1f6      	bne.n	10002e2e <_vsnprintf+0x5fa>
10002e40:	4643      	mov	r3, r8
10002e42:	930c      	str	r3, [sp, #48]	@ 0x30
10002e44:	003b      	movs	r3, r7
10002e46:	4657      	mov	r7, sl
10002e48:	46b2      	mov	sl, r6
10002e4a:	465e      	mov	r6, fp
10002e4c:	469b      	mov	fp, r3
10002e4e:	e6e4      	b.n	10002c1a <_vsnprintf+0x3e6>
10002e50:	23c0      	movs	r3, #192	@ 0xc0
10002e52:	78b0      	ldrb	r0, [r6, #2]
10002e54:	4319      	orrs	r1, r3
10002e56:	3602      	adds	r6, #2
10002e58:	e55a      	b.n	10002910 <_vsnprintf+0xdc>
10002e5a:	23c0      	movs	r3, #192	@ 0xc0
10002e5c:	009b      	lsls	r3, r3, #2
10002e5e:	78b0      	ldrb	r0, [r6, #2]
10002e60:	4319      	orrs	r1, r3
10002e62:	3602      	adds	r6, #2
10002e64:	e554      	b.n	10002910 <_vsnprintf+0xdc>
10002e66:	4656      	mov	r6, sl
10002e68:	46ba      	mov	sl, r7
10002e6a:	4647      	mov	r7, r8
10002e6c:	e6d5      	b.n	10002c1a <_vsnprintf+0x3e6>
10002e6e:	2f01      	cmp	r7, #1
10002e70:	d800      	bhi.n	10002e74 <_vsnprintf+0x640>
10002e72:	e232      	b.n	100032da <_vsnprintf+0xaa6>
10002e74:	1e6b      	subs	r3, r5, #1
10002e76:	4698      	mov	r8, r3
10002e78:	44b8      	add	r8, r7
10002e7a:	002c      	movs	r4, r5
10002e7c:	46a9      	mov	r9, r5
10002e7e:	4645      	mov	r5, r8
10002e80:	46b8      	mov	r8, r7
10002e82:	4657      	mov	r7, sl
10002e84:	46b2      	mov	sl, r6
10002e86:	9e09      	ldr	r6, [sp, #36]	@ 0x24
10002e88:	0022      	movs	r2, r4
10002e8a:	465b      	mov	r3, fp
10002e8c:	3401      	adds	r4, #1
10002e8e:	0039      	movs	r1, r7
10002e90:	2020      	movs	r0, #32
10002e92:	47b0      	blx	r6
10002e94:	42ac      	cmp	r4, r5
10002e96:	d1f7      	bne.n	10002e88 <_vsnprintf+0x654>
10002e98:	9b0a      	ldr	r3, [sp, #40]	@ 0x28
10002e9a:	4656      	mov	r6, sl
10002e9c:	cb01      	ldmia	r3!, {r0}
10002e9e:	46ba      	mov	sl, r7
10002ea0:	4647      	mov	r7, r8
10002ea2:	4698      	mov	r8, r3
10002ea4:	0022      	movs	r2, r4
10002ea6:	465b      	mov	r3, fp
10002ea8:	9c09      	ldr	r4, [sp, #36]	@ 0x24
10002eaa:	4651      	mov	r1, sl
10002eac:	b2c0      	uxtb	r0, r0
10002eae:	47a0      	blx	r4
10002eb0:	464d      	mov	r5, r9
10002eb2:	4643      	mov	r3, r8
10002eb4:	19ed      	adds	r5, r5, r7
10002eb6:	930a      	str	r3, [sp, #40]	@ 0x28
10002eb8:	1c74      	adds	r4, r6, #1
10002eba:	e4e2      	b.n	10002882 <_vsnprintf+0x4e>
10002ebc:	9b0c      	ldr	r3, [sp, #48]	@ 0x30
10002ebe:	46a8      	mov	r8, r5
10002ec0:	429f      	cmp	r7, r3
10002ec2:	d800      	bhi.n	10002ec6 <_vsnprintf+0x692>
10002ec4:	e6ad      	b.n	10002c22 <_vsnprintf+0x3ee>
10002ec6:	4644      	mov	r4, r8
10002ec8:	46b0      	mov	r8, r6
10002eca:	4656      	mov	r6, sl
10002ecc:	197d      	adds	r5, r7, r5
10002ece:	9f09      	ldr	r7, [sp, #36]	@ 0x24
10002ed0:	1aed      	subs	r5, r5, r3
10002ed2:	0022      	movs	r2, r4
10002ed4:	465b      	mov	r3, fp
10002ed6:	3401      	adds	r4, #1
10002ed8:	0031      	movs	r1, r6
10002eda:	2020      	movs	r0, #32
10002edc:	47b8      	blx	r7
10002ede:	42ac      	cmp	r4, r5
10002ee0:	d1f7      	bne.n	10002ed2 <_vsnprintf+0x69e>
10002ee2:	46b2      	mov	sl, r6
10002ee4:	4646      	mov	r6, r8
10002ee6:	e69c      	b.n	10002c22 <_vsnprintf+0x3ee>
10002ee8:	980c      	ldr	r0, [sp, #48]	@ 0x30
10002eea:	4287      	cmp	r7, r0
10002eec:	d800      	bhi.n	10002ef0 <_vsnprintf+0x6bc>
10002eee:	e1f0      	b.n	100032d2 <_vsnprintf+0xa9e>
10002ef0:	4642      	mov	r2, r8
10002ef2:	4698      	mov	r8, r3
10002ef4:	1979      	adds	r1, r7, r5
10002ef6:	46b9      	mov	r9, r7
10002ef8:	4657      	mov	r7, sl
10002efa:	46b2      	mov	sl, r6
10002efc:	9e09      	ldr	r6, [sp, #36]	@ 0x24
10002efe:	1a0c      	subs	r4, r1, r0
10002f00:	920c      	str	r2, [sp, #48]	@ 0x30
10002f02:	002a      	movs	r2, r5
10002f04:	465b      	mov	r3, fp
10002f06:	3501      	adds	r5, #1
10002f08:	0039      	movs	r1, r7
10002f0a:	2020      	movs	r0, #32
10002f0c:	47b0      	blx	r6
10002f0e:	42a5      	cmp	r5, r4
10002f10:	d1f7      	bne.n	10002f02 <_vsnprintf+0x6ce>
10002f12:	4656      	mov	r6, sl
10002f14:	46ba      	mov	sl, r7
10002f16:	464f      	mov	r7, r9
10002f18:	4643      	mov	r3, r8
10002f1a:	9a0c      	ldr	r2, [sp, #48]	@ 0x30
10002f1c:	4690      	mov	r8, r2
10002f1e:	1c7a      	adds	r2, r7, #1
10002f20:	920c      	str	r2, [sp, #48]	@ 0x30
10002f22:	781a      	ldrb	r2, [r3, #0]
10002f24:	1e10      	subs	r0, r2, #0
10002f26:	d000      	beq.n	10002f2a <_vsnprintf+0x6f6>
10002f28:	e657      	b.n	10002bda <_vsnprintf+0x3a6>
10002f2a:	e67a      	b.n	10002c22 <_vsnprintf+0x3ee>
10002f2c:	2208      	movs	r2, #8
10002f2e:	2107      	movs	r1, #7
10002f30:	4691      	mov	r9, r2
10002f32:	9b0a      	ldr	r3, [sp, #40]	@ 0x28
10002f34:	3307      	adds	r3, #7
10002f36:	438b      	bics	r3, r1
10002f38:	4499      	add	r9, r3
10002f3a:	464a      	mov	r2, r9
10002f3c:	cb0a      	ldmia	r3, {r1, r3}
10002f3e:	000c      	movs	r4, r1
10002f40:	920a      	str	r2, [sp, #40]	@ 0x28
10002f42:	431c      	orrs	r4, r3
10002f44:	0fda      	lsrs	r2, r3, #31
10002f46:	2c00      	cmp	r4, #0
10002f48:	d04e      	beq.n	10002fe8 <_vsnprintf+0x7b4>
10002f4a:	17d8      	asrs	r0, r3, #31
10002f4c:	0004      	movs	r4, r0
10002f4e:	9010      	str	r0, [sp, #64]	@ 0x40
10002f50:	404c      	eors	r4, r1
10002f52:	9011      	str	r0, [sp, #68]	@ 0x44
10002f54:	940e      	str	r4, [sp, #56]	@ 0x38
10002f56:	9810      	ldr	r0, [sp, #64]	@ 0x40
10002f58:	9911      	ldr	r1, [sp, #68]	@ 0x44
10002f5a:	000c      	movs	r4, r1
10002f5c:	405c      	eors	r4, r3
10002f5e:	940f      	str	r4, [sp, #60]	@ 0x3c
10002f60:	9b0e      	ldr	r3, [sp, #56]	@ 0x38
10002f62:	9c0f      	ldr	r4, [sp, #60]	@ 0x3c
10002f64:	1a1b      	subs	r3, r3, r0
10002f66:	418c      	sbcs	r4, r1
10002f68:	930e      	str	r3, [sp, #56]	@ 0x38
10002f6a:	940f      	str	r4, [sp, #60]	@ 0x3c
10002f6c:	a90e      	add	r1, sp, #56	@ 0x38
10002f6e:	4688      	mov	r8, r1
10002f70:	231f      	movs	r3, #31
10002f72:	2400      	movs	r4, #0
10002f74:	4443      	add	r3, r8
10002f76:	9712      	str	r7, [sp, #72]	@ 0x48
10002f78:	46b0      	mov	r8, r6
10002f7a:	0027      	movs	r7, r4
10002f7c:	9513      	str	r5, [sp, #76]	@ 0x4c
10002f7e:	001e      	movs	r6, r3
10002f80:	9c0e      	ldr	r4, [sp, #56]	@ 0x38
10002f82:	9d0f      	ldr	r5, [sp, #60]	@ 0x3c
10002f84:	46e1      	mov	r9, ip
10002f86:	920c      	str	r2, [sp, #48]	@ 0x30
10002f88:	e001      	b.n	10002f8e <_vsnprintf+0x75a>
10002f8a:	2f20      	cmp	r7, #32
10002f8c:	d010      	beq.n	10002fb0 <_vsnprintf+0x77c>
10002f8e:	0020      	movs	r0, r4
10002f90:	0029      	movs	r1, r5
10002f92:	220a      	movs	r2, #10
10002f94:	2300      	movs	r3, #0
10002f96:	f000 faa7 	bl	100034e8 <__wrap___aeabi_uldivmod>
10002f9a:	3701      	adds	r7, #1
10002f9c:	3230      	adds	r2, #48	@ 0x30
10002f9e:	002b      	movs	r3, r5
10002fa0:	55f2      	strb	r2, [r6, r7]
10002fa2:	000d      	movs	r5, r1
10002fa4:	0022      	movs	r2, r4
10002fa6:	0004      	movs	r4, r0
10002fa8:	2b00      	cmp	r3, #0
10002faa:	d1ee      	bne.n	10002f8a <_vsnprintf+0x756>
10002fac:	2a09      	cmp	r2, #9
10002fae:	d8ec      	bhi.n	10002f8a <_vsnprintf+0x756>
10002fb0:	4646      	mov	r6, r8
10002fb2:	46cc      	mov	ip, r9
10002fb4:	940e      	str	r4, [sp, #56]	@ 0x38
10002fb6:	950f      	str	r5, [sp, #60]	@ 0x3c
10002fb8:	9a0c      	ldr	r2, [sp, #48]	@ 0x30
10002fba:	003c      	movs	r4, r7
10002fbc:	9d13      	ldr	r5, [sp, #76]	@ 0x4c
10002fbe:	9f12      	ldr	r7, [sp, #72]	@ 0x48
10002fc0:	4663      	mov	r3, ip
10002fc2:	9306      	str	r3, [sp, #24]
10002fc4:	9b0b      	ldr	r3, [sp, #44]	@ 0x2c
10002fc6:	9705      	str	r7, [sp, #20]
10002fc8:	9304      	str	r3, [sp, #16]
10002fca:	230a      	movs	r3, #10
10002fcc:	9202      	str	r2, [sp, #8]
10002fce:	9303      	str	r3, [sp, #12]
10002fd0:	e6cf      	b.n	10002d72 <_vsnprintf+0x53e>
10002fd2:	23ff      	movs	r3, #255	@ 0xff
10002fd4:	990a      	ldr	r1, [sp, #40]	@ 0x28
10002fd6:	c904      	ldmia	r1!, {r2}
10002fd8:	4013      	ands	r3, r2
10002fda:	0018      	movs	r0, r3
10002fdc:	910a      	str	r1, [sp, #40]	@ 0x28
10002fde:	e698      	b.n	10002d12 <_vsnprintf+0x4de>
10002fe0:	2310      	movs	r3, #16
10002fe2:	4399      	bics	r1, r3
10002fe4:	468c      	mov	ip, r1
10002fe6:	e674      	b.n	10002cd2 <_vsnprintf+0x49e>
10002fe8:	4643      	mov	r3, r8
10002fea:	2400      	movs	r4, #0
10002fec:	2b00      	cmp	r3, #0
10002fee:	d1e7      	bne.n	10002fc0 <_vsnprintf+0x78c>
10002ff0:	2300      	movs	r3, #0
10002ff2:	2400      	movs	r4, #0
10002ff4:	930e      	str	r3, [sp, #56]	@ 0x38
10002ff6:	940f      	str	r4, [sp, #60]	@ 0x3c
10002ff8:	e7b8      	b.n	10002f6c <_vsnprintf+0x738>
10002ffa:	4643      	mov	r3, r8
10002ffc:	464d      	mov	r5, r9
10002ffe:	930a      	str	r3, [sp, #40]	@ 0x28
10003000:	1c74      	adds	r4, r6, #1
10003002:	e43e      	b.n	10002882 <_vsnprintf+0x4e>
10003004:	2380      	movs	r3, #128	@ 0x80
10003006:	000a      	movs	r2, r1
10003008:	00db      	lsls	r3, r3, #3
1000300a:	401a      	ands	r2, r3
1000300c:	4691      	mov	r9, r2
1000300e:	4219      	tst	r1, r3
10003010:	d100      	bne.n	10003014 <_vsnprintf+0x7e0>
10003012:	e140      	b.n	10003296 <_vsnprintf+0xa62>
10003014:	230d      	movs	r3, #13
10003016:	4399      	bics	r1, r3
10003018:	3b0b      	subs	r3, #11
1000301a:	0008      	movs	r0, r1
1000301c:	930c      	str	r3, [sp, #48]	@ 0x30
1000301e:	e6cb      	b.n	10002db8 <_vsnprintf+0x584>
10003020:	2380      	movs	r3, #128	@ 0x80
10003022:	000a      	movs	r2, r1
10003024:	00db      	lsls	r3, r3, #3
10003026:	401a      	ands	r2, r3
10003028:	4691      	mov	r9, r2
1000302a:	4219      	tst	r1, r3
1000302c:	d100      	bne.n	10003030 <_vsnprintf+0x7fc>
1000302e:	e162      	b.n	100032f6 <_vsnprintf+0xac2>
10003030:	230d      	movs	r3, #13
10003032:	2020      	movs	r0, #32
10003034:	4399      	bics	r1, r3
10003036:	3303      	adds	r3, #3
10003038:	4308      	orrs	r0, r1
1000303a:	930c      	str	r3, [sp, #48]	@ 0x30
1000303c:	e6bc      	b.n	10002db8 <_vsnprintf+0x584>
1000303e:	2361      	movs	r3, #97	@ 0x61
10003040:	0681      	lsls	r1, r0, #26
10003042:	d500      	bpl.n	10003046 <_vsnprintf+0x812>
10003044:	2341      	movs	r3, #65	@ 0x41
10003046:	a90e      	add	r1, sp, #56	@ 0x38
10003048:	221f      	movs	r2, #31
1000304a:	468c      	mov	ip, r1
1000304c:	b2db      	uxtb	r3, r3
1000304e:	4462      	add	r2, ip
10003050:	3b0a      	subs	r3, #10
10003052:	9713      	str	r7, [sp, #76]	@ 0x4c
10003054:	9514      	str	r5, [sp, #80]	@ 0x50
10003056:	4681      	mov	r9, r0
10003058:	4645      	mov	r5, r8
1000305a:	9f0c      	ldr	r7, [sp, #48]	@ 0x30
1000305c:	46b0      	mov	r8, r6
1000305e:	9312      	str	r3, [sp, #72]	@ 0x48
10003060:	0016      	movs	r6, r2
10003062:	e008      	b.n	10003076 <_vsnprintf+0x842>
10003064:	3330      	adds	r3, #48	@ 0x30
10003066:	b2db      	uxtb	r3, r3
10003068:	3401      	adds	r4, #1
1000306a:	5533      	strb	r3, [r6, r4]
1000306c:	42bd      	cmp	r5, r7
1000306e:	d30e      	bcc.n	1000308e <_vsnprintf+0x85a>
10003070:	2c20      	cmp	r4, #32
10003072:	d00c      	beq.n	1000308e <_vsnprintf+0x85a>
10003074:	0005      	movs	r5, r0
10003076:	0039      	movs	r1, r7
10003078:	0028      	movs	r0, r5
1000307a:	f000 f9f7 	bl	1000346c <__wrap___aeabi_uidiv>
1000307e:	b2cb      	uxtb	r3, r1
10003080:	2909      	cmp	r1, #9
10003082:	d9ef      	bls.n	10003064 <_vsnprintf+0x830>
10003084:	9a12      	ldr	r2, [sp, #72]	@ 0x48
10003086:	4694      	mov	ip, r2
10003088:	4463      	add	r3, ip
1000308a:	b2db      	uxtb	r3, r3
1000308c:	e7ec      	b.n	10003068 <_vsnprintf+0x834>
1000308e:	4646      	mov	r6, r8
10003090:	4648      	mov	r0, r9
10003092:	9f13      	ldr	r7, [sp, #76]	@ 0x4c
10003094:	9d14      	ldr	r5, [sp, #80]	@ 0x50
10003096:	e6b2      	b.n	10002dfe <_vsnprintf+0x5ca>
10003098:	286f      	cmp	r0, #111	@ 0x6f
1000309a:	d000      	beq.n	1000309e <_vsnprintf+0x86a>
1000309c:	e13c      	b.n	10003318 <_vsnprintf+0xae4>
1000309e:	230c      	movs	r3, #12
100030a0:	0008      	movs	r0, r1
100030a2:	4398      	bics	r0, r3
100030a4:	2380      	movs	r3, #128	@ 0x80
100030a6:	000a      	movs	r2, r1
100030a8:	00db      	lsls	r3, r3, #3
100030aa:	401a      	ands	r2, r3
100030ac:	4691      	mov	r9, r2
100030ae:	4219      	tst	r1, r3
100030b0:	d000      	beq.n	100030b4 <_vsnprintf+0x880>
100030b2:	e12a      	b.n	1000330a <_vsnprintf+0xad6>
100030b4:	2308      	movs	r3, #8
100030b6:	930c      	str	r3, [sp, #48]	@ 0x30
100030b8:	e67e      	b.n	10002db8 <_vsnprintf+0x584>
100030ba:	990a      	ldr	r1, [sp, #40]	@ 0x28
100030bc:	3bfa      	subs	r3, #250	@ 0xfa
100030be:	3bff      	subs	r3, #255	@ 0xff
100030c0:	3107      	adds	r1, #7
100030c2:	4399      	bics	r1, r3
100030c4:	3301      	adds	r3, #1
100030c6:	469c      	mov	ip, r3
100030c8:	448c      	add	ip, r1
100030ca:	4663      	mov	r3, ip
100030cc:	684a      	ldr	r2, [r1, #4]
100030ce:	930a      	str	r3, [sp, #40]	@ 0x28
100030d0:	680b      	ldr	r3, [r1, #0]
100030d2:	4690      	mov	r8, r2
100030d4:	469c      	mov	ip, r3
100030d6:	4313      	orrs	r3, r2
100030d8:	1e19      	subs	r1, r3, #0
100030da:	d106      	bne.n	100030ea <_vsnprintf+0x8b6>
100030dc:	464b      	mov	r3, r9
100030de:	3110      	adds	r1, #16
100030e0:	2400      	movs	r4, #0
100030e2:	4388      	bics	r0, r1
100030e4:	2b00      	cmp	r3, #0
100030e6:	d000      	beq.n	100030ea <_vsnprintf+0x8b6>
100030e8:	e689      	b.n	10002dfe <_vsnprintf+0x5ca>
100030ea:	2161      	movs	r1, #97	@ 0x61
100030ec:	0683      	lsls	r3, r0, #26
100030ee:	d500      	bpl.n	100030f2 <_vsnprintf+0x8be>
100030f0:	2141      	movs	r1, #65	@ 0x41
100030f2:	aa0e      	add	r2, sp, #56	@ 0x38
100030f4:	4691      	mov	r9, r2
100030f6:	231f      	movs	r3, #31
100030f8:	444b      	add	r3, r9
100030fa:	4699      	mov	r9, r3
100030fc:	b2c9      	uxtb	r1, r1
100030fe:	9b0c      	ldr	r3, [sp, #48]	@ 0x30
10003100:	390a      	subs	r1, #10
10003102:	9713      	str	r7, [sp, #76]	@ 0x4c
10003104:	9514      	str	r5, [sp, #80]	@ 0x50
10003106:	9615      	str	r6, [sp, #84]	@ 0x54
10003108:	4645      	mov	r5, r8
1000310a:	464e      	mov	r6, r9
1000310c:	2400      	movs	r4, #0
1000310e:	4667      	mov	r7, ip
10003110:	4698      	mov	r8, r3
10003112:	4681      	mov	r9, r0
10003114:	9112      	str	r1, [sp, #72]	@ 0x48
10003116:	e00c      	b.n	10003132 <_vsnprintf+0x8fe>
10003118:	3230      	adds	r2, #48	@ 0x30
1000311a:	b2d2      	uxtb	r2, r2
1000311c:	2300      	movs	r3, #0
1000311e:	3401      	adds	r4, #1
10003120:	5532      	strb	r2, [r6, r4]
10003122:	42ab      	cmp	r3, r5
10003124:	d100      	bne.n	10003128 <_vsnprintf+0x8f4>
10003126:	e0bc      	b.n	100032a2 <_vsnprintf+0xa6e>
10003128:	2c20      	cmp	r4, #32
1000312a:	d100      	bne.n	1000312e <_vsnprintf+0x8fa>
1000312c:	e0bc      	b.n	100032a8 <_vsnprintf+0xa74>
1000312e:	0007      	movs	r7, r0
10003130:	000d      	movs	r5, r1
10003132:	4642      	mov	r2, r8
10003134:	2300      	movs	r3, #0
10003136:	0038      	movs	r0, r7
10003138:	0029      	movs	r1, r5
1000313a:	f000 f9d5 	bl	100034e8 <__wrap___aeabi_uldivmod>
1000313e:	b2d2      	uxtb	r2, r2
10003140:	2a09      	cmp	r2, #9
10003142:	d9e9      	bls.n	10003118 <_vsnprintf+0x8e4>
10003144:	9b12      	ldr	r3, [sp, #72]	@ 0x48
10003146:	469c      	mov	ip, r3
10003148:	4462      	add	r2, ip
1000314a:	b2d2      	uxtb	r2, r2
1000314c:	e7e6      	b.n	1000311c <_vsnprintf+0x8e8>
1000314e:	4643      	mov	r3, r8
10003150:	2b00      	cmp	r3, #0
10003152:	d000      	beq.n	10003156 <_vsnprintf+0x922>
10003154:	e604      	b.n	10002d60 <_vsnprintf+0x52c>
10003156:	e5e2      	b.n	10002d1e <_vsnprintf+0x4ea>
10003158:	9c0a      	ldr	r4, [sp, #40]	@ 0x28
1000315a:	cc08      	ldmia	r4!, {r3}
1000315c:	0fda      	lsrs	r2, r3, #31
1000315e:	9213      	str	r2, [sp, #76]	@ 0x4c
10003160:	2b00      	cmp	r3, #0
10003162:	d100      	bne.n	10003166 <_vsnprintf+0x932>
10003164:	e0a5      	b.n	100032b2 <_vsnprintf+0xa7e>
10003166:	17d9      	asrs	r1, r3, #31
10003168:	185b      	adds	r3, r3, r1
1000316a:	404b      	eors	r3, r1
1000316c:	4698      	mov	r8, r3
1000316e:	aa0e      	add	r2, sp, #56	@ 0x38
10003170:	4691      	mov	r9, r2
10003172:	231f      	movs	r3, #31
10003174:	444b      	add	r3, r9
10003176:	950c      	str	r5, [sp, #48]	@ 0x30
10003178:	46a1      	mov	r9, r4
1000317a:	4645      	mov	r5, r8
1000317c:	9612      	str	r6, [sp, #72]	@ 0x48
1000317e:	46e0      	mov	r8, ip
10003180:	0006      	movs	r6, r0
10003182:	001c      	movs	r4, r3
10003184:	970a      	str	r7, [sp, #40]	@ 0x28
10003186:	e001      	b.n	1000318c <_vsnprintf+0x958>
10003188:	2e20      	cmp	r6, #32
1000318a:	d00f      	beq.n	100031ac <_vsnprintf+0x978>
1000318c:	0028      	movs	r0, r5
1000318e:	210a      	movs	r1, #10
10003190:	f000 f96c 	bl	1000346c <__wrap___aeabi_uidiv>
10003194:	3601      	adds	r6, #1
10003196:	19a7      	adds	r7, r4, r6
10003198:	3130      	adds	r1, #48	@ 0x30
1000319a:	7039      	strb	r1, [r7, #0]
1000319c:	0028      	movs	r0, r5
1000319e:	210a      	movs	r1, #10
100031a0:	f000 f964 	bl	1000346c <__wrap___aeabi_uidiv>
100031a4:	002f      	movs	r7, r5
100031a6:	0005      	movs	r5, r0
100031a8:	2f09      	cmp	r7, #9
100031aa:	d8ed      	bhi.n	10003188 <_vsnprintf+0x954>
100031ac:	46c4      	mov	ip, r8
100031ae:	464c      	mov	r4, r9
100031b0:	0030      	movs	r0, r6
100031b2:	9f0a      	ldr	r7, [sp, #40]	@ 0x28
100031b4:	9d0c      	ldr	r5, [sp, #48]	@ 0x30
100031b6:	9e12      	ldr	r6, [sp, #72]	@ 0x48
100031b8:	4663      	mov	r3, ip
100031ba:	9306      	str	r3, [sp, #24]
100031bc:	9b0b      	ldr	r3, [sp, #44]	@ 0x2c
100031be:	002a      	movs	r2, r5
100031c0:	9304      	str	r3, [sp, #16]
100031c2:	230a      	movs	r3, #10
100031c4:	9303      	str	r3, [sp, #12]
100031c6:	9b13      	ldr	r3, [sp, #76]	@ 0x4c
100031c8:	9001      	str	r0, [sp, #4]
100031ca:	9302      	str	r3, [sp, #8]
100031cc:	ab16      	add	r3, sp, #88	@ 0x58
100031ce:	9300      	str	r3, [sp, #0]
100031d0:	4651      	mov	r1, sl
100031d2:	465b      	mov	r3, fp
100031d4:	9809      	ldr	r0, [sp, #36]	@ 0x24
100031d6:	9705      	str	r7, [sp, #20]
100031d8:	f7fe fe16 	bl	10001e08 <_ntoa_format>
100031dc:	940a      	str	r4, [sp, #40]	@ 0x28
100031de:	0005      	movs	r5, r0
100031e0:	1c74      	adds	r4, r6, #1
100031e2:	f7ff fb4e 	bl	10002882 <_vsnprintf+0x4e>
100031e6:	9b0a      	ldr	r3, [sp, #40]	@ 0x28
100031e8:	cb10      	ldmia	r3!, {r4}
100031ea:	9314      	str	r3, [sp, #80]	@ 0x50
100031ec:	2c00      	cmp	r4, #0
100031ee:	d104      	bne.n	100031fa <_vsnprintf+0x9c6>
100031f0:	2310      	movs	r3, #16
100031f2:	4398      	bics	r0, r3
100031f4:	464b      	mov	r3, r9
100031f6:	2b00      	cmp	r3, #0
100031f8:	d12c      	bne.n	10003254 <_vsnprintf+0xa20>
100031fa:	2361      	movs	r3, #97	@ 0x61
100031fc:	0681      	lsls	r1, r0, #26
100031fe:	d500      	bpl.n	10003202 <_vsnprintf+0x9ce>
10003200:	2341      	movs	r3, #65	@ 0x41
10003202:	a90e      	add	r1, sp, #56	@ 0x38
10003204:	221f      	movs	r2, #31
10003206:	468c      	mov	ip, r1
10003208:	b2db      	uxtb	r3, r3
1000320a:	4462      	add	r2, ip
1000320c:	3b0a      	subs	r3, #10
1000320e:	9712      	str	r7, [sp, #72]	@ 0x48
10003210:	9513      	str	r5, [sp, #76]	@ 0x4c
10003212:	4681      	mov	r9, r0
10003214:	4645      	mov	r5, r8
10003216:	9f0c      	ldr	r7, [sp, #48]	@ 0x30
10003218:	46b0      	mov	r8, r6
1000321a:	930a      	str	r3, [sp, #40]	@ 0x28
1000321c:	0016      	movs	r6, r2
1000321e:	e008      	b.n	10003232 <_vsnprintf+0x9fe>
10003220:	3330      	adds	r3, #48	@ 0x30
10003222:	b2db      	uxtb	r3, r3
10003224:	3501      	adds	r5, #1
10003226:	5573      	strb	r3, [r6, r5]
10003228:	42bc      	cmp	r4, r7
1000322a:	d30e      	bcc.n	1000324a <_vsnprintf+0xa16>
1000322c:	2d20      	cmp	r5, #32
1000322e:	d00c      	beq.n	1000324a <_vsnprintf+0xa16>
10003230:	0004      	movs	r4, r0
10003232:	0039      	movs	r1, r7
10003234:	0020      	movs	r0, r4
10003236:	f000 f919 	bl	1000346c <__wrap___aeabi_uidiv>
1000323a:	b2cb      	uxtb	r3, r1
1000323c:	2909      	cmp	r1, #9
1000323e:	d9ef      	bls.n	10003220 <_vsnprintf+0x9ec>
10003240:	9a0a      	ldr	r2, [sp, #40]	@ 0x28
10003242:	4694      	mov	ip, r2
10003244:	4463      	add	r3, ip
10003246:	b2db      	uxtb	r3, r3
10003248:	e7ec      	b.n	10003224 <_vsnprintf+0x9f0>
1000324a:	4648      	mov	r0, r9
1000324c:	4646      	mov	r6, r8
1000324e:	9f12      	ldr	r7, [sp, #72]	@ 0x48
10003250:	46a8      	mov	r8, r5
10003252:	9d13      	ldr	r5, [sp, #76]	@ 0x4c
10003254:	9b0b      	ldr	r3, [sp, #44]	@ 0x2c
10003256:	002a      	movs	r2, r5
10003258:	9304      	str	r3, [sp, #16]
1000325a:	9b0c      	ldr	r3, [sp, #48]	@ 0x30
1000325c:	9006      	str	r0, [sp, #24]
1000325e:	9303      	str	r3, [sp, #12]
10003260:	2300      	movs	r3, #0
10003262:	9302      	str	r3, [sp, #8]
10003264:	4643      	mov	r3, r8
10003266:	9301      	str	r3, [sp, #4]
10003268:	ab16      	add	r3, sp, #88	@ 0x58
1000326a:	9300      	str	r3, [sp, #0]
1000326c:	4651      	mov	r1, sl
1000326e:	465b      	mov	r3, fp
10003270:	9809      	ldr	r0, [sp, #36]	@ 0x24
10003272:	9705      	str	r7, [sp, #20]
10003274:	f7fe fdc8 	bl	10001e08 <_ntoa_format>
10003278:	9b14      	ldr	r3, [sp, #80]	@ 0x50
1000327a:	0005      	movs	r5, r0
1000327c:	930a      	str	r3, [sp, #40]	@ 0x28
1000327e:	1c74      	adds	r4, r6, #1
10003280:	f7ff faff 	bl	10002882 <_vsnprintf+0x4e>
10003284:	0603      	lsls	r3, r0, #24
10003286:	d51f      	bpl.n	100032c8 <_vsnprintf+0xa94>
10003288:	9b0a      	ldr	r3, [sp, #40]	@ 0x28
1000328a:	cb02      	ldmia	r3!, {r1}
1000328c:	0409      	lsls	r1, r1, #16
1000328e:	0c0a      	lsrs	r2, r1, #16
10003290:	4690      	mov	r8, r2
10003292:	930a      	str	r3, [sp, #40]	@ 0x28
10003294:	e5a8      	b.n	10002de8 <_vsnprintf+0x5b4>
10003296:	230c      	movs	r3, #12
10003298:	4399      	bics	r1, r3
1000329a:	3b0a      	subs	r3, #10
1000329c:	0008      	movs	r0, r1
1000329e:	930c      	str	r3, [sp, #48]	@ 0x30
100032a0:	e58a      	b.n	10002db8 <_vsnprintf+0x584>
100032a2:	45b8      	cmp	r8, r7
100032a4:	d800      	bhi.n	100032a8 <_vsnprintf+0xa74>
100032a6:	e73f      	b.n	10003128 <_vsnprintf+0x8f4>
100032a8:	4648      	mov	r0, r9
100032aa:	9f13      	ldr	r7, [sp, #76]	@ 0x4c
100032ac:	9d14      	ldr	r5, [sp, #80]	@ 0x50
100032ae:	9e15      	ldr	r6, [sp, #84]	@ 0x54
100032b0:	e5a5      	b.n	10002dfe <_vsnprintf+0x5ca>
100032b2:	4643      	mov	r3, r8
100032b4:	2b00      	cmp	r3, #0
100032b6:	d000      	beq.n	100032ba <_vsnprintf+0xa86>
100032b8:	e77e      	b.n	100031b8 <_vsnprintf+0x984>
100032ba:	e758      	b.n	1000316e <_vsnprintf+0x93a>
100032bc:	c908      	ldmia	r1!, {r3}
100032be:	17da      	asrs	r2, r3, #31
100032c0:	1898      	adds	r0, r3, r2
100032c2:	4050      	eors	r0, r2
100032c4:	910a      	str	r1, [sp, #40]	@ 0x28
100032c6:	e524      	b.n	10002d12 <_vsnprintf+0x4de>
100032c8:	9b0a      	ldr	r3, [sp, #40]	@ 0x28
100032ca:	cb04      	ldmia	r3!, {r2}
100032cc:	4690      	mov	r8, r2
100032ce:	930a      	str	r3, [sp, #40]	@ 0x28
100032d0:	e58a      	b.n	10002de8 <_vsnprintf+0x5b4>
100032d2:	0001      	movs	r1, r0
100032d4:	3101      	adds	r1, #1
100032d6:	910c      	str	r1, [sp, #48]	@ 0x30
100032d8:	e624      	b.n	10002f24 <_vsnprintf+0x6f0>
100032da:	9f0a      	ldr	r7, [sp, #40]	@ 0x28
100032dc:	1c6c      	adds	r4, r5, #1
100032de:	cf01      	ldmia	r7!, {r0}
100032e0:	002a      	movs	r2, r5
100032e2:	465b      	mov	r3, fp
100032e4:	9d09      	ldr	r5, [sp, #36]	@ 0x24
100032e6:	4651      	mov	r1, sl
100032e8:	b2c0      	uxtb	r0, r0
100032ea:	47a8      	blx	r5
100032ec:	0025      	movs	r5, r4
100032ee:	970a      	str	r7, [sp, #40]	@ 0x28
100032f0:	1c74      	adds	r4, r6, #1
100032f2:	f7ff fac6 	bl	10002882 <_vsnprintf+0x4e>
100032f6:	2320      	movs	r3, #32
100032f8:	4319      	orrs	r1, r3
100032fa:	230c      	movs	r3, #12
100032fc:	4399      	bics	r1, r3
100032fe:	2300      	movs	r3, #0
10003300:	4699      	mov	r9, r3
10003302:	3310      	adds	r3, #16
10003304:	0008      	movs	r0, r1
10003306:	930c      	str	r3, [sp, #48]	@ 0x30
10003308:	e556      	b.n	10002db8 <_vsnprintf+0x584>
1000330a:	2308      	movs	r3, #8
1000330c:	468c      	mov	ip, r1
1000330e:	930c      	str	r3, [sp, #48]	@ 0x30
10003310:	230d      	movs	r3, #13
10003312:	4660      	mov	r0, ip
10003314:	4398      	bics	r0, r3
10003316:	e54f      	b.n	10002db8 <_vsnprintf+0x584>
10003318:	2310      	movs	r3, #16
1000331a:	000a      	movs	r2, r1
1000331c:	439a      	bics	r2, r3
1000331e:	4694      	mov	ip, r2
10003320:	2869      	cmp	r0, #105	@ 0x69
10003322:	d108      	bne.n	10003336 <_vsnprintf+0xb02>
10003324:	2380      	movs	r3, #128	@ 0x80
10003326:	000a      	movs	r2, r1
10003328:	00db      	lsls	r3, r3, #3
1000332a:	401a      	ands	r2, r3
1000332c:	4690      	mov	r8, r2
1000332e:	4219      	tst	r1, r3
10003330:	d100      	bne.n	10003334 <_vsnprintf+0xb00>
10003332:	e4ce      	b.n	10002cd2 <_vsnprintf+0x49e>
10003334:	e4ca      	b.n	10002ccc <_vsnprintf+0x498>
10003336:	231c      	movs	r3, #28
10003338:	0008      	movs	r0, r1
1000333a:	4398      	bics	r0, r3
1000333c:	2380      	movs	r3, #128	@ 0x80
1000333e:	000a      	movs	r2, r1
10003340:	00db      	lsls	r3, r3, #3
10003342:	401a      	ands	r2, r3
10003344:	4691      	mov	r9, r2
10003346:	4219      	tst	r1, r3
10003348:	d102      	bne.n	10003350 <_vsnprintf+0xb1c>
1000334a:	230a      	movs	r3, #10
1000334c:	930c      	str	r3, [sp, #48]	@ 0x30
1000334e:	e533      	b.n	10002db8 <_vsnprintf+0x584>
10003350:	230a      	movs	r3, #10
10003352:	930c      	str	r3, [sp, #48]	@ 0x30
10003354:	e7dc      	b.n	10003310 <_vsnprintf+0xadc>
10003356:	46c0      	nop			@ (mov r8, r8)

10003358 <vfctprintf>:
10003358:	b500      	push	{lr}
1000335a:	b085      	sub	sp, #20
1000335c:	9103      	str	r1, [sp, #12]
1000335e:	2101      	movs	r1, #1
10003360:	9002      	str	r0, [sp, #8]
10003362:	9300      	str	r3, [sp, #0]
10003364:	4803      	ldr	r0, [pc, #12]	@ (10003374 <vfctprintf+0x1c>)
10003366:	0013      	movs	r3, r2
10003368:	424a      	negs	r2, r1
1000336a:	a902      	add	r1, sp, #8
1000336c:	f7ff fa62 	bl	10002834 <_vsnprintf>
10003370:	b005      	add	sp, #20
10003372:	bd00      	pop	{pc}
10003374:	1000200d 	.word	0x1000200d

10003378 <weak_raw_vprintf>:
10003378:	b510      	push	{r4, lr}
1000337a:	4a09      	ldr	r2, [pc, #36]	@ (100033a0 <weak_raw_vprintf+0x28>)
1000337c:	0003      	movs	r3, r0
1000337e:	6814      	ldr	r4, [r2, #0]
10003380:	b084      	sub	sp, #16
10003382:	2c00      	cmp	r4, #0
10003384:	d008      	beq.n	10003398 <weak_raw_vprintf+0x20>
10003386:	2201      	movs	r2, #1
10003388:	9100      	str	r1, [sp, #0]
1000338a:	4806      	ldr	r0, [pc, #24]	@ (100033a4 <weak_raw_vprintf+0x2c>)
1000338c:	4252      	negs	r2, r2
1000338e:	a903      	add	r1, sp, #12
10003390:	47a0      	blx	r4
10003392:	2001      	movs	r0, #1
10003394:	b004      	add	sp, #16
10003396:	bd10      	pop	{r4, pc}
10003398:	f000 fd68 	bl	10003e6c <__wrap_puts>
1000339c:	2000      	movs	r0, #0
1000339e:	e7f9      	b.n	10003394 <weak_raw_vprintf+0x1c>
100033a0:	20000514 	.word	0x20000514
100033a4:	10001ffd 	.word	0x10001ffd

100033a8 <__aeabi_bits_init>:
100033a8:	4801      	ldr	r0, [pc, #4]	@ (100033b0 <__aeabi_bits_init+0x8>)
100033aa:	2104      	movs	r1, #4
100033ac:	4b01      	ldr	r3, [pc, #4]	@ (100033b4 <__aeabi_bits_init+0xc>)
100033ae:	4718      	bx	r3
100033b0:	20000210 	.word	0x20000210
100033b4:	100033d9 	.word	0x100033d9

100033b8 <rom_func_lookup>:
100033b8:	2314      	movs	r3, #20
100033ba:	b510      	push	{r4, lr}
100033bc:	0001      	movs	r1, r0
100033be:	8818      	ldrh	r0, [r3, #0]
100033c0:	3304      	adds	r3, #4
100033c2:	881b      	ldrh	r3, [r3, #0]
100033c4:	4798      	blx	r3
100033c6:	bd10      	pop	{r4, pc}

100033c8 <rom_data_lookup>:
100033c8:	2316      	movs	r3, #22
100033ca:	b510      	push	{r4, lr}
100033cc:	0001      	movs	r1, r0
100033ce:	8818      	ldrh	r0, [r3, #0]
100033d0:	3302      	adds	r3, #2
100033d2:	881b      	ldrh	r3, [r3, #0]
100033d4:	4798      	blx	r3
100033d6:	bd10      	pop	{r4, pc}

100033d8 <rom_funcs_lookup>:
100033d8:	b5f8      	push	{r3, r4, r5, r6, r7, lr}
100033da:	4647      	mov	r7, r8
100033dc:	46ce      	mov	lr, r9
100033de:	b580      	push	{r7, lr}
100033e0:	1e0f      	subs	r7, r1, #0
100033e2:	d019      	beq.n	10003418 <rom_funcs_lookup+0x40>
100033e4:	2314      	movs	r3, #20
100033e6:	4699      	mov	r9, r3
100033e8:	3304      	adds	r3, #4
100033ea:	0004      	movs	r4, r0
100033ec:	2500      	movs	r5, #0
100033ee:	2601      	movs	r6, #1
100033f0:	4698      	mov	r8, r3
100033f2:	464b      	mov	r3, r9
100033f4:	8818      	ldrh	r0, [r3, #0]
100033f6:	4643      	mov	r3, r8
100033f8:	6821      	ldr	r1, [r4, #0]
100033fa:	881b      	ldrh	r3, [r3, #0]
100033fc:	4798      	blx	r3
100033fe:	c401      	stmia	r4!, {r0}
10003400:	1e43      	subs	r3, r0, #1
10003402:	4198      	sbcs	r0, r3
10003404:	3501      	adds	r5, #1
10003406:	4240      	negs	r0, r0
10003408:	4006      	ands	r6, r0
1000340a:	42af      	cmp	r7, r5
1000340c:	d1f1      	bne.n	100033f2 <rom_funcs_lookup+0x1a>
1000340e:	0030      	movs	r0, r6
10003410:	bcc0      	pop	{r6, r7}
10003412:	46b9      	mov	r9, r7
10003414:	46b0      	mov	r8, r6
10003416:	bdf8      	pop	{r3, r4, r5, r6, r7, pc}
10003418:	2601      	movs	r6, #1
1000341a:	e7f8      	b.n	1000340e <rom_funcs_lookup+0x36>

1000341c <__wrap___aeabi_idiv>:
1000341c:	4a12      	ldr	r2, [pc, #72]	@ (10003468 <divmod_s32s32_savestate+0x18>)
1000341e:	6f93      	ldr	r3, [r2, #120]	@ 0x78
10003420:	089b      	lsrs	r3, r3, #2
10003422:	d215      	bcs.n	10003450 <divmod_s32s32_savestate>

10003424 <divmod_s32s32_unsafe>:
10003424:	6690      	str	r0, [r2, #104]	@ 0x68
10003426:	66d1      	str	r1, [r2, #108]	@ 0x6c
10003428:	2900      	cmp	r1, #0
1000342a:	d005      	beq.n	10003438 <divmod_s32s32_unsafe+0x14>
1000342c:	e7ff      	b.n	1000342e <divmod_s32s32_unsafe+0xa>
1000342e:	e7ff      	b.n	10003430 <divmod_s32s32_unsafe+0xc>
10003430:	e7ff      	b.n	10003432 <divmod_s32s32_unsafe+0xe>
10003432:	6f51      	ldr	r1, [r2, #116]	@ 0x74
10003434:	6f10      	ldr	r0, [r2, #112]	@ 0x70
10003436:	4770      	bx	lr
10003438:	b504      	push	{r2, lr}
1000343a:	2180      	movs	r1, #128	@ 0x80
1000343c:	0609      	lsls	r1, r1, #24
1000343e:	17c2      	asrs	r2, r0, #31
10003440:	4051      	eors	r1, r2
10003442:	2800      	cmp	r0, #0
10003444:	d000      	beq.n	10003448 <divmod_s32s32_unsafe+0x24>
10003446:	43c8      	mvns	r0, r1
10003448:	f001 fa4e 	bl	100048e8 <____aeabi_idiv0_veneer>
1000344c:	2100      	movs	r1, #0
1000344e:	bd04      	pop	{r2, pc}

10003450 <divmod_s32s32_savestate>:
10003450:	b5f0      	push	{r4, r5, r6, r7, lr}
10003452:	6e14      	ldr	r4, [r2, #96]	@ 0x60
10003454:	6e55      	ldr	r5, [r2, #100]	@ 0x64
10003456:	6f57      	ldr	r7, [r2, #116]	@ 0x74
10003458:	6f16      	ldr	r6, [r2, #112]	@ 0x70
1000345a:	f7ff ffe3 	bl	10003424 <divmod_s32s32_unsafe>
1000345e:	6614      	str	r4, [r2, #96]	@ 0x60
10003460:	6655      	str	r5, [r2, #100]	@ 0x64
10003462:	6757      	str	r7, [r2, #116]	@ 0x74
10003464:	6716      	str	r6, [r2, #112]	@ 0x70
10003466:	bdf0      	pop	{r4, r5, r6, r7, pc}
10003468:	d0000000 	.word	0xd0000000

1000346c <__wrap___aeabi_uidiv>:
1000346c:	4a11      	ldr	r2, [pc, #68]	@ (100034b4 <divmod_u32u32_savestate+0x18>)
1000346e:	6f93      	ldr	r3, [r2, #120]	@ 0x78
10003470:	089b      	lsrs	r3, r3, #2
10003472:	d213      	bcs.n	1000349c <divmod_u32u32_savestate>

10003474 <divmod_u32u32_unsafe>:
10003474:	6610      	str	r0, [r2, #96]	@ 0x60
10003476:	6651      	str	r1, [r2, #100]	@ 0x64
10003478:	2900      	cmp	r1, #0
1000347a:	d005      	beq.n	10003488 <divmod_u32u32_unsafe+0x14>
1000347c:	e7ff      	b.n	1000347e <divmod_u32u32_unsafe+0xa>
1000347e:	e7ff      	b.n	10003480 <divmod_u32u32_unsafe+0xc>
10003480:	e7ff      	b.n	10003482 <divmod_u32u32_unsafe+0xe>
10003482:	6f51      	ldr	r1, [r2, #116]	@ 0x74
10003484:	6f10      	ldr	r0, [r2, #112]	@ 0x70
10003486:	4770      	bx	lr
10003488:	b504      	push	{r2, lr}
1000348a:	2800      	cmp	r0, #0
1000348c:	d001      	beq.n	10003492 <divmod_u32u32_unsafe+0x1e>
1000348e:	2000      	movs	r0, #0
10003490:	43c0      	mvns	r0, r0
10003492:	f001 fa29 	bl	100048e8 <____aeabi_idiv0_veneer>
10003496:	2100      	movs	r1, #0
10003498:	bd04      	pop	{r2, pc}
1000349a:	46c0      	nop			@ (mov r8, r8)

1000349c <divmod_u32u32_savestate>:
1000349c:	b5f0      	push	{r4, r5, r6, r7, lr}
1000349e:	6e14      	ldr	r4, [r2, #96]	@ 0x60
100034a0:	6e55      	ldr	r5, [r2, #100]	@ 0x64
100034a2:	6f57      	ldr	r7, [r2, #116]	@ 0x74
100034a4:	6f16      	ldr	r6, [r2, #112]	@ 0x70
100034a6:	f7ff ffe5 	bl	10003474 <divmod_u32u32_unsafe>
100034aa:	6614      	str	r4, [r2, #96]	@ 0x60
100034ac:	6655      	str	r5, [r2, #100]	@ 0x64
100034ae:	6757      	str	r7, [r2, #116]	@ 0x74
100034b0:	6716      	str	r6, [r2, #112]	@ 0x70
100034b2:	bdf0      	pop	{r4, r5, r6, r7, pc}
100034b4:	d0000000 	.word	0xd0000000

100034b8 <__wrap___aeabi_ldivmod>:
100034b8:	4694      	mov	ip, r2
100034ba:	4a4a      	ldr	r2, [pc, #296]	@ (100035e4 <udiv0+0x1a>)
100034bc:	6f92      	ldr	r2, [r2, #120]	@ 0x78
100034be:	0892      	lsrs	r2, r2, #2
100034c0:	4662      	mov	r2, ip
100034c2:	d201      	bcs.n	100034c8 <divmod_s64s64_savestate>
100034c4:	e028      	b.n	10003518 <divmod_s64s64_unsafe>
100034c6:	46c0      	nop			@ (mov r8, r8)

100034c8 <divmod_s64s64_savestate>:
100034c8:	b5f0      	push	{r4, r5, r6, r7, lr}
100034ca:	4e46      	ldr	r6, [pc, #280]	@ (100035e4 <udiv0+0x1a>)
100034cc:	6e34      	ldr	r4, [r6, #96]	@ 0x60
100034ce:	6e75      	ldr	r5, [r6, #100]	@ 0x64
100034d0:	6f77      	ldr	r7, [r6, #116]	@ 0x74
100034d2:	6f36      	ldr	r6, [r6, #112]	@ 0x70
100034d4:	f000 f820 	bl	10003518 <divmod_s64s64_unsafe>
100034d8:	4694      	mov	ip, r2
100034da:	4a42      	ldr	r2, [pc, #264]	@ (100035e4 <udiv0+0x1a>)
100034dc:	6614      	str	r4, [r2, #96]	@ 0x60
100034de:	6655      	str	r5, [r2, #100]	@ 0x64
100034e0:	6757      	str	r7, [r2, #116]	@ 0x74
100034e2:	6716      	str	r6, [r2, #112]	@ 0x70
100034e4:	4662      	mov	r2, ip
100034e6:	bdf0      	pop	{r4, r5, r6, r7, pc}

100034e8 <__wrap___aeabi_uldivmod>:
100034e8:	4694      	mov	ip, r2
100034ea:	4a3e      	ldr	r2, [pc, #248]	@ (100035e4 <udiv0+0x1a>)
100034ec:	6f92      	ldr	r2, [r2, #120]	@ 0x78
100034ee:	0892      	lsrs	r2, r2, #2
100034f0:	4662      	mov	r2, ip
100034f2:	d201      	bcs.n	100034f8 <divmod_u64u64_savestate>
100034f4:	e054      	b.n	100035a0 <divmod_u64u64_unsafe>
100034f6:	46c0      	nop			@ (mov r8, r8)

100034f8 <divmod_u64u64_savestate>:
100034f8:	b5f0      	push	{r4, r5, r6, r7, lr}
100034fa:	4e3a      	ldr	r6, [pc, #232]	@ (100035e4 <udiv0+0x1a>)
100034fc:	6e34      	ldr	r4, [r6, #96]	@ 0x60
100034fe:	6e75      	ldr	r5, [r6, #100]	@ 0x64
10003500:	6f77      	ldr	r7, [r6, #116]	@ 0x74
10003502:	6f36      	ldr	r6, [r6, #112]	@ 0x70
10003504:	f000 f84c 	bl	100035a0 <divmod_u64u64_unsafe>
10003508:	4694      	mov	ip, r2
1000350a:	4a36      	ldr	r2, [pc, #216]	@ (100035e4 <udiv0+0x1a>)
1000350c:	6614      	str	r4, [r2, #96]	@ 0x60
1000350e:	6655      	str	r5, [r2, #100]	@ 0x64
10003510:	6757      	str	r7, [r2, #116]	@ 0x74
10003512:	6716      	str	r6, [r2, #112]	@ 0x70
10003514:	4662      	mov	r2, ip
10003516:	bdf0      	pop	{r4, r5, r6, r7, pc}

10003518 <divmod_s64s64_unsafe>:
10003518:	2b00      	cmp	r3, #0
1000351a:	db24      	blt.n	10003566 <l42_1+0x26>
1000351c:	d011      	beq.n	10003542 <l42_1+0x2>
1000351e:	2900      	cmp	r1, #0
10003520:	da3e      	bge.n	100035a0 <divmod_u64u64_unsafe>
10003522:	b500      	push	{lr}
10003524:	43c9      	mvns	r1, r1
10003526:	4240      	negs	r0, r0
10003528:	d100      	bne.n	1000352c <l40_1>
1000352a:	3101      	adds	r1, #1

1000352c <l40_1>:
1000352c:	f000 f838 	bl	100035a0 <divmod_u64u64_unsafe>
10003530:	43c9      	mvns	r1, r1
10003532:	4240      	negs	r0, r0
10003534:	d100      	bne.n	10003538 <l41_1>
10003536:	3101      	adds	r1, #1

10003538 <l41_1>:
10003538:	43db      	mvns	r3, r3
1000353a:	4252      	negs	r2, r2
1000353c:	d100      	bne.n	10003540 <l42_1>
1000353e:	3301      	adds	r3, #1

10003540 <l42_1>:
10003540:	bd00      	pop	{pc}
10003542:	2a00      	cmp	r2, #0
10003544:	d1eb      	bne.n	1000351e <divmod_s64s64_unsafe+0x6>
10003546:	2800      	cmp	r0, #0
10003548:	d101      	bne.n	1000354e <l42_1+0xe>
1000354a:	2900      	cmp	r1, #0
1000354c:	d005      	beq.n	1000355a <l42_1+0x1a>
1000354e:	2000      	movs	r0, #0
10003550:	0fc9      	lsrs	r1, r1, #31
10003552:	07c9      	lsls	r1, r1, #31
10003554:	d101      	bne.n	1000355a <l42_1+0x1a>
10003556:	43c0      	mvns	r0, r0
10003558:	0841      	lsrs	r1, r0, #1
1000355a:	b500      	push	{lr}
1000355c:	f001 f9bc 	bl	100048d8 <____aeabi_ldiv0_veneer>
10003560:	2200      	movs	r2, #0
10003562:	2300      	movs	r3, #0
10003564:	bd00      	pop	{pc}
10003566:	b500      	push	{lr}
10003568:	2900      	cmp	r1, #0
1000356a:	db0a      	blt.n	10003582 <l44_1+0x2>
1000356c:	43db      	mvns	r3, r3
1000356e:	4252      	negs	r2, r2
10003570:	d100      	bne.n	10003574 <l43_1>
10003572:	3301      	adds	r3, #1

10003574 <l43_1>:
10003574:	f000 f814 	bl	100035a0 <divmod_u64u64_unsafe>
10003578:	43c9      	mvns	r1, r1
1000357a:	4240      	negs	r0, r0
1000357c:	d100      	bne.n	10003580 <l44_1>
1000357e:	3101      	adds	r1, #1

10003580 <l44_1>:
10003580:	bd00      	pop	{pc}
10003582:	43c9      	mvns	r1, r1
10003584:	4240      	negs	r0, r0
10003586:	d100      	bne.n	1000358a <l45_1>
10003588:	3101      	adds	r1, #1

1000358a <l45_1>:
1000358a:	43db      	mvns	r3, r3
1000358c:	4252      	negs	r2, r2
1000358e:	d100      	bne.n	10003592 <l46_1>
10003590:	3301      	adds	r3, #1

10003592 <l46_1>:
10003592:	f000 f805 	bl	100035a0 <divmod_u64u64_unsafe>
10003596:	43db      	mvns	r3, r3
10003598:	4252      	negs	r2, r2
1000359a:	d100      	bne.n	1000359e <l47_1>
1000359c:	3301      	adds	r3, #1

1000359e <l47_1>:
1000359e:	bd00      	pop	{pc}

100035a0 <divmod_u64u64_unsafe>:
100035a0:	2900      	cmp	r1, #0
100035a2:	d123      	bne.n	100035ec <y64>
100035a4:	2b00      	cmp	r3, #0
100035a6:	d118      	bne.n	100035da <udiv0+0x10>
100035a8:	2a00      	cmp	r2, #0
100035aa:	d00c      	beq.n	100035c6 <divmod_u64u64_unsafe+0x26>
100035ac:	46bc      	mov	ip, r7
100035ae:	4f0d      	ldr	r7, [pc, #52]	@ (100035e4 <udiv0+0x1a>)
100035b0:	6638      	str	r0, [r7, #96]	@ 0x60
100035b2:	667a      	str	r2, [r7, #100]	@ 0x64
100035b4:	2100      	movs	r1, #0
100035b6:	2300      	movs	r3, #0
100035b8:	e7ff      	b.n	100035ba <divmod_u64u64_unsafe+0x1a>
100035ba:	e7ff      	b.n	100035bc <divmod_u64u64_unsafe+0x1c>
100035bc:	e7ff      	b.n	100035be <divmod_u64u64_unsafe+0x1e>
100035be:	6f7a      	ldr	r2, [r7, #116]	@ 0x74
100035c0:	6f38      	ldr	r0, [r7, #112]	@ 0x70
100035c2:	4667      	mov	r7, ip
100035c4:	4770      	bx	lr
100035c6:	2800      	cmp	r0, #0
100035c8:	d001      	beq.n	100035ce <udiv0+0x4>

100035ca <udiv0>:
100035ca:	4807      	ldr	r0, [pc, #28]	@ (100035e8 <udiv0+0x1e>)
100035cc:	0001      	movs	r1, r0
100035ce:	b500      	push	{lr}
100035d0:	f001 f982 	bl	100048d8 <____aeabi_ldiv0_veneer>
100035d4:	2200      	movs	r2, #0
100035d6:	2300      	movs	r3, #0
100035d8:	bd00      	pop	{pc}
100035da:	0002      	movs	r2, r0
100035dc:	000b      	movs	r3, r1
100035de:	2000      	movs	r0, #0
100035e0:	2100      	movs	r1, #0
100035e2:	4770      	bx	lr
100035e4:	d0000000 	.word	0xd0000000
100035e8:	ffffffff 	.word	0xffffffff

100035ec <y64>:
100035ec:	2b00      	cmp	r3, #0
100035ee:	d000      	beq.n	100035f2 <y64+0x6>
100035f0:	e0bf      	b.n	10003772 <y64_x48>
100035f2:	0c13      	lsrs	r3, r2, #16
100035f4:	d128      	bne.n	10003648 <y64_x32>
100035f6:	2a00      	cmp	r2, #0
100035f8:	d0e7      	beq.n	100035ca <udiv0>
100035fa:	b480      	push	{r7}
100035fc:	4f11      	ldr	r7, [pc, #68]	@ (10003644 <y64+0x58>)
100035fe:	6639      	str	r1, [r7, #96]	@ 0x60
10003600:	667a      	str	r2, [r7, #100]	@ 0x64
10003602:	e7ff      	b.n	10003604 <y64+0x18>
10003604:	e7ff      	b.n	10003606 <y64+0x1a>
10003606:	b430      	push	{r4, r5}
10003608:	0c04      	lsrs	r4, r0, #16
1000360a:	6f7b      	ldr	r3, [r7, #116]	@ 0x74
1000360c:	6f39      	ldr	r1, [r7, #112]	@ 0x70
1000360e:	041b      	lsls	r3, r3, #16
10003610:	4323      	orrs	r3, r4
10003612:	663b      	str	r3, [r7, #96]	@ 0x60
10003614:	667a      	str	r2, [r7, #100]	@ 0x64
10003616:	e7ff      	b.n	10003618 <y64+0x2c>
10003618:	e7ff      	b.n	1000361a <y64+0x2e>
1000361a:	e7ff      	b.n	1000361c <y64+0x30>
1000361c:	46c0      	nop			@ (mov r8, r8)
1000361e:	b284      	uxth	r4, r0
10003620:	6f7b      	ldr	r3, [r7, #116]	@ 0x74
10003622:	6f3d      	ldr	r5, [r7, #112]	@ 0x70
10003624:	041b      	lsls	r3, r3, #16
10003626:	4323      	orrs	r3, r4
10003628:	663b      	str	r3, [r7, #96]	@ 0x60
1000362a:	667a      	str	r2, [r7, #100]	@ 0x64
1000362c:	e7ff      	b.n	1000362e <y64+0x42>
1000362e:	e7ff      	b.n	10003630 <y64+0x44>
10003630:	46c0      	nop			@ (mov r8, r8)
10003632:	2300      	movs	r3, #0
10003634:	042c      	lsls	r4, r5, #16
10003636:	0c2d      	lsrs	r5, r5, #16
10003638:	6f7a      	ldr	r2, [r7, #116]	@ 0x74
1000363a:	6f38      	ldr	r0, [r7, #112]	@ 0x70
1000363c:	1900      	adds	r0, r0, r4
1000363e:	4169      	adcs	r1, r5
10003640:	bcb0      	pop	{r4, r5, r7}
10003642:	4770      	bx	lr
10003644:	d0000000 	.word	0xd0000000

10003648 <y64_x32>:
10003648:	b5f0      	push	{r4, r5, r6, r7, lr}
1000364a:	4694      	mov	ip, r2
1000364c:	2500      	movs	r5, #0
1000364e:	0e14      	lsrs	r4, r2, #24
10003650:	d101      	bne.n	10003656 <y64_x32+0xe>
10003652:	0212      	lsls	r2, r2, #8
10003654:	3508      	adds	r5, #8
10003656:	0f14      	lsrs	r4, r2, #28
10003658:	d101      	bne.n	1000365e <y64_x32+0x16>
1000365a:	0112      	lsls	r2, r2, #4
1000365c:	3504      	adds	r5, #4
1000365e:	0f94      	lsrs	r4, r2, #30
10003660:	d101      	bne.n	10003666 <y64_x32+0x1e>
10003662:	0092      	lsls	r2, r2, #2
10003664:	3502      	adds	r5, #2
10003666:	0fd4      	lsrs	r4, r2, #31
10003668:	d101      	bne.n	1000366e <y64_x32+0x26>
1000366a:	0052      	lsls	r2, r2, #1
1000366c:	3501      	adds	r5, #1
1000366e:	0bd4      	lsrs	r4, r2, #15
10003670:	3401      	adds	r4, #1
10003672:	4f25      	ldr	r7, [pc, #148]	@ (10003708 <y64_x32+0xc0>)
10003674:	667c      	str	r4, [r7, #100]	@ 0x64
10003676:	4c25      	ldr	r4, [pc, #148]	@ (1000370c <y64_x32+0xc4>)
10003678:	663c      	str	r4, [r7, #96]	@ 0x60
1000367a:	0c0e      	lsrs	r6, r1, #16
1000367c:	b293      	uxth	r3, r2
1000367e:	e7ff      	b.n	10003680 <y64_x32+0x38>
10003680:	e7ff      	b.n	10003682 <y64_x32+0x3a>
10003682:	e7ff      	b.n	10003684 <y64_x32+0x3c>
10003684:	6f3c      	ldr	r4, [r7, #112]	@ 0x70
10003686:	4366      	muls	r6, r4
10003688:	0c36      	lsrs	r6, r6, #16
1000368a:	0377      	lsls	r7, r6, #13
1000368c:	46be      	mov	lr, r7
1000368e:	4373      	muls	r3, r6
10003690:	0bdf      	lsrs	r7, r3, #15
10003692:	045b      	lsls	r3, r3, #17
10003694:	1ac0      	subs	r0, r0, r3
10003696:	41b9      	sbcs	r1, r7
10003698:	0c13      	lsrs	r3, r2, #16
1000369a:	4373      	muls	r3, r6
1000369c:	18db      	adds	r3, r3, r3
1000369e:	1ac9      	subs	r1, r1, r3
100036a0:	08ce      	lsrs	r6, r1, #3
100036a2:	4366      	muls	r6, r4
100036a4:	0c36      	lsrs	r6, r6, #16
100036a6:	44b6      	add	lr, r6
100036a8:	b293      	uxth	r3, r2
100036aa:	4373      	muls	r3, r6
100036ac:	0f1f      	lsrs	r7, r3, #28
100036ae:	011b      	lsls	r3, r3, #4
100036b0:	1ac0      	subs	r0, r0, r3
100036b2:	41b9      	sbcs	r1, r7
100036b4:	0c13      	lsrs	r3, r2, #16
100036b6:	4373      	muls	r3, r6
100036b8:	0b1f      	lsrs	r7, r3, #12
100036ba:	051b      	lsls	r3, r3, #20
100036bc:	1ac0      	subs	r0, r0, r3
100036be:	41b9      	sbcs	r1, r7
100036c0:	0d86      	lsrs	r6, r0, #22
100036c2:	028f      	lsls	r7, r1, #10
100036c4:	433e      	orrs	r6, r7
100036c6:	4366      	muls	r6, r4
100036c8:	0c36      	lsrs	r6, r6, #16
100036ca:	2d09      	cmp	r5, #9
100036cc:	db24      	blt.n	10003718 <last0>
100036ce:	0a52      	lsrs	r2, r2, #9
100036d0:	4372      	muls	r2, r6
100036d2:	1a80      	subs	r0, r0, r2
100036d4:	0377      	lsls	r7, r6, #13
100036d6:	0a46      	lsrs	r6, r0, #9
100036d8:	4366      	muls	r6, r4
100036da:	0c36      	lsrs	r6, r6, #16
100036dc:	2316      	movs	r3, #22
100036de:	1b5b      	subs	r3, r3, r5
100036e0:	40de      	lsrs	r6, r3
100036e2:	40df      	lsrs	r7, r3
100036e4:	19bf      	adds	r7, r7, r6
100036e6:	4664      	mov	r4, ip
100036e8:	4366      	muls	r6, r4
100036ea:	1b82      	subs	r2, r0, r6
100036ec:	4670      	mov	r0, lr
100036ee:	3504      	adds	r5, #4
100036f0:	3306      	adds	r3, #6
100036f2:	0001      	movs	r1, r0
100036f4:	40d9      	lsrs	r1, r3
100036f6:	40a8      	lsls	r0, r5
100036f8:	19c0      	adds	r0, r0, r7
100036fa:	d300      	bcc.n	100036fe <y64_x32+0xb6>
100036fc:	3101      	adds	r1, #1
100036fe:	42a2      	cmp	r2, r4
10003700:	d206      	bcs.n	10003710 <y64_x32+0xc8>
10003702:	2300      	movs	r3, #0
10003704:	bdf0      	pop	{r4, r5, r6, r7, pc}
10003706:	0000      	.short	0x0000
10003708:	d0000000 	.word	0xd0000000
1000370c:	ffffffff 	.word	0xffffffff
10003710:	1b12      	subs	r2, r2, r4
10003712:	3001      	adds	r0, #1
10003714:	d3f3      	bcc.n	100036fe <y64_x32+0xb6>
10003716:	e7f1      	b.n	100036fc <y64_x32+0xb4>

10003718 <last0>:
10003718:	2709      	movs	r7, #9
1000371a:	1b7f      	subs	r7, r7, r5
1000371c:	40fe      	lsrs	r6, r7
1000371e:	4664      	mov	r4, ip
10003720:	b2a2      	uxth	r2, r4
10003722:	4372      	muls	r2, r6
10003724:	1a80      	subs	r0, r0, r2
10003726:	d200      	bcs.n	1000372a <last0+0x12>
10003728:	3901      	subs	r1, #1
1000372a:	0c22      	lsrs	r2, r4, #16
1000372c:	4372      	muls	r2, r6
1000372e:	0c13      	lsrs	r3, r2, #16
10003730:	0412      	lsls	r2, r2, #16
10003732:	1a82      	subs	r2, r0, r2
10003734:	4199      	sbcs	r1, r3
10003736:	000b      	movs	r3, r1
10003738:	4670      	mov	r0, lr
1000373a:	3504      	adds	r5, #4
1000373c:	3713      	adds	r7, #19
1000373e:	0001      	movs	r1, r0
10003740:	40f9      	lsrs	r1, r7
10003742:	40a8      	lsls	r0, r5
10003744:	1980      	adds	r0, r0, r6
10003746:	d300      	bcc.n	1000374a <last0+0x32>
10003748:	3101      	adds	r1, #1
1000374a:	2b00      	cmp	r3, #0
1000374c:	d102      	bne.n	10003754 <last0+0x3c>
1000374e:	42a2      	cmp	r2, r4
10003750:	d20a      	bcs.n	10003768 <last0+0x50>
10003752:	bdf0      	pop	{r4, r5, r6, r7, pc}
10003754:	3001      	adds	r0, #1
10003756:	d300      	bcc.n	1000375a <last0+0x42>
10003758:	3101      	adds	r1, #1
1000375a:	1b12      	subs	r2, r2, r4
1000375c:	d2fa      	bcs.n	10003754 <last0+0x3c>
1000375e:	3b01      	subs	r3, #1
10003760:	d1f8      	bne.n	10003754 <last0+0x3c>
10003762:	42a2      	cmp	r2, r4
10003764:	d200      	bcs.n	10003768 <last0+0x50>
10003766:	bdf0      	pop	{r4, r5, r6, r7, pc}
10003768:	3001      	adds	r0, #1
1000376a:	d300      	bcc.n	1000376e <last0+0x56>
1000376c:	3101      	adds	r1, #1
1000376e:	1b12      	subs	r2, r2, r4
10003770:	e7f7      	b.n	10003762 <last0+0x4a>

10003772 <y64_x48>:
10003772:	b5f0      	push	{r4, r5, r6, r7, lr}
10003774:	0c1c      	lsrs	r4, r3, #16
10003776:	d000      	beq.n	1000377a <y64_x48+0x8>
10003778:	e080      	b.n	1000387c <y64_x64>
1000377a:	b40c      	push	{r2, r3}
1000377c:	2500      	movs	r5, #0
1000377e:	0a1c      	lsrs	r4, r3, #8
10003780:	d104      	bne.n	1000378c <y64_x48+0x1a>
10003782:	021b      	lsls	r3, r3, #8
10003784:	0e16      	lsrs	r6, r2, #24
10003786:	4333      	orrs	r3, r6
10003788:	0212      	lsls	r2, r2, #8
1000378a:	3508      	adds	r5, #8
1000378c:	0b1c      	lsrs	r4, r3, #12
1000378e:	d104      	bne.n	1000379a <y64_x48+0x28>
10003790:	011b      	lsls	r3, r3, #4
10003792:	0f16      	lsrs	r6, r2, #28
10003794:	4333      	orrs	r3, r6
10003796:	0112      	lsls	r2, r2, #4
10003798:	3504      	adds	r5, #4
1000379a:	0b9c      	lsrs	r4, r3, #14
1000379c:	d104      	bne.n	100037a8 <y64_x48+0x36>
1000379e:	009b      	lsls	r3, r3, #2
100037a0:	0f96      	lsrs	r6, r2, #30
100037a2:	4333      	orrs	r3, r6
100037a4:	0092      	lsls	r2, r2, #2
100037a6:	3502      	adds	r5, #2
100037a8:	0bdc      	lsrs	r4, r3, #15
100037aa:	d102      	bne.n	100037b2 <y64_x48+0x40>
100037ac:	1892      	adds	r2, r2, r2
100037ae:	415b      	adcs	r3, r3
100037b0:	3501      	adds	r5, #1
100037b2:	001c      	movs	r4, r3
100037b4:	1897      	adds	r7, r2, r2
100037b6:	4164      	adcs	r4, r4
100037b8:	3401      	adds	r4, #1
100037ba:	4f46      	ldr	r7, [pc, #280]	@ (100038d4 <y64_x64+0x58>)
100037bc:	667c      	str	r4, [r7, #100]	@ 0x64
100037be:	4c46      	ldr	r4, [pc, #280]	@ (100038d8 <y64_x64+0x5c>)
100037c0:	663c      	str	r4, [r7, #96]	@ 0x60
100037c2:	0c0e      	lsrs	r6, r1, #16
100037c4:	e7ff      	b.n	100037c6 <y64_x48+0x54>
100037c6:	e7ff      	b.n	100037c8 <y64_x48+0x56>
100037c8:	e7ff      	b.n	100037ca <y64_x48+0x58>
100037ca:	46c0      	nop			@ (mov r8, r8)
100037cc:	6f3c      	ldr	r4, [r7, #112]	@ 0x70
100037ce:	4366      	muls	r6, r4
100037d0:	0c36      	lsrs	r6, r6, #16
100037d2:	0377      	lsls	r7, r6, #13
100037d4:	46be      	mov	lr, r7
100037d6:	b297      	uxth	r7, r2
100037d8:	4377      	muls	r7, r6
100037da:	1bc0      	subs	r0, r0, r7
100037dc:	d200      	bcs.n	100037e0 <y64_x48+0x6e>
100037de:	3901      	subs	r1, #1
100037e0:	1bc0      	subs	r0, r0, r7
100037e2:	d200      	bcs.n	100037e6 <y64_x48+0x74>
100037e4:	3901      	subs	r1, #1
100037e6:	b29f      	uxth	r7, r3
100037e8:	4377      	muls	r7, r6
100037ea:	1bc9      	subs	r1, r1, r7
100037ec:	1bc9      	subs	r1, r1, r7
100037ee:	0c17      	lsrs	r7, r2, #16
100037f0:	4377      	muls	r7, r6
100037f2:	047e      	lsls	r6, r7, #17
100037f4:	0bff      	lsrs	r7, r7, #15
100037f6:	1b80      	subs	r0, r0, r6
100037f8:	41b9      	sbcs	r1, r7
100037fa:	08ce      	lsrs	r6, r1, #3
100037fc:	4366      	muls	r6, r4
100037fe:	0c36      	lsrs	r6, r6, #16
10003800:	2d0c      	cmp	r5, #12
10003802:	db33      	blt.n	1000386c <last1>
10003804:	44b6      	add	lr, r6
10003806:	0b12      	lsrs	r2, r2, #12
10003808:	051f      	lsls	r7, r3, #20
1000380a:	433a      	orrs	r2, r7
1000380c:	0b1b      	lsrs	r3, r3, #12
1000380e:	b297      	uxth	r7, r2
10003810:	4377      	muls	r7, r6
10003812:	1bc0      	subs	r0, r0, r7
10003814:	d200      	bcs.n	10003818 <y64_x48+0xa6>
10003816:	3901      	subs	r1, #1
10003818:	b29f      	uxth	r7, r3
1000381a:	4377      	muls	r7, r6
1000381c:	1bc9      	subs	r1, r1, r7
1000381e:	0c17      	lsrs	r7, r2, #16
10003820:	4377      	muls	r7, r6
10003822:	043e      	lsls	r6, r7, #16
10003824:	0c3f      	lsrs	r7, r7, #16
10003826:	1b80      	subs	r0, r0, r6
10003828:	41b9      	sbcs	r1, r7
1000382a:	0d86      	lsrs	r6, r0, #22
1000382c:	028f      	lsls	r7, r1, #10
1000382e:	433e      	orrs	r6, r7
10003830:	4366      	muls	r6, r4
10003832:	2729      	movs	r7, #41	@ 0x29
10003834:	1b7f      	subs	r7, r7, r5
10003836:	40fe      	lsrs	r6, r7
10003838:	3d0c      	subs	r5, #12
1000383a:	4677      	mov	r7, lr
1000383c:	40af      	lsls	r7, r5
1000383e:	19bf      	adds	r7, r7, r6
10003840:	bc30      	pop	{r4, r5}
10003842:	b2a2      	uxth	r2, r4
10003844:	b2ab      	uxth	r3, r5
10003846:	4372      	muls	r2, r6
10003848:	4373      	muls	r3, r6
1000384a:	1a80      	subs	r0, r0, r2
1000384c:	4199      	sbcs	r1, r3
1000384e:	0c22      	lsrs	r2, r4, #16
10003850:	4372      	muls	r2, r6
10003852:	0c13      	lsrs	r3, r2, #16
10003854:	0412      	lsls	r2, r2, #16
10003856:	1a80      	subs	r0, r0, r2
10003858:	4199      	sbcs	r1, r3
1000385a:	0002      	movs	r2, r0
1000385c:	000b      	movs	r3, r1
1000385e:	3701      	adds	r7, #1
10003860:	1b00      	subs	r0, r0, r4
10003862:	41a9      	sbcs	r1, r5
10003864:	d2f9      	bcs.n	1000385a <y64_x48+0xe8>
10003866:	1e78      	subs	r0, r7, #1
10003868:	2100      	movs	r1, #0
1000386a:	bdf0      	pop	{r4, r5, r6, r7, pc}

1000386c <last1>:
1000386c:	270c      	movs	r7, #12
1000386e:	1b7f      	subs	r7, r7, r5
10003870:	40fe      	lsrs	r6, r7
10003872:	4677      	mov	r7, lr
10003874:	0b7f      	lsrs	r7, r7, #13
10003876:	40af      	lsls	r7, r5
10003878:	19ff      	adds	r7, r7, r7
1000387a:	e7e0      	b.n	1000383e <y64_x48+0xcc>

1000387c <y64_x64>:
1000387c:	2400      	movs	r4, #0
1000387e:	1c5d      	adds	r5, r3, #1
10003880:	d007      	beq.n	10003892 <y64_x64+0x16>
10003882:	4f14      	ldr	r7, [pc, #80]	@ (100038d4 <y64_x64+0x58>)
10003884:	667d      	str	r5, [r7, #100]	@ 0x64
10003886:	6639      	str	r1, [r7, #96]	@ 0x60
10003888:	e7ff      	b.n	1000388a <y64_x64+0xe>
1000388a:	e7ff      	b.n	1000388c <y64_x64+0x10>
1000388c:	e7ff      	b.n	1000388e <y64_x64+0x12>
1000388e:	e7ff      	b.n	10003890 <y64_x64+0x14>
10003890:	6f3c      	ldr	r4, [r7, #112]	@ 0x70
10003892:	b295      	uxth	r5, r2
10003894:	b29e      	uxth	r6, r3
10003896:	4365      	muls	r5, r4
10003898:	4366      	muls	r6, r4
1000389a:	1b40      	subs	r0, r0, r5
1000389c:	41b1      	sbcs	r1, r6
1000389e:	0c15      	lsrs	r5, r2, #16
100038a0:	0c1e      	lsrs	r6, r3, #16
100038a2:	4365      	muls	r5, r4
100038a4:	4366      	muls	r6, r4
100038a6:	0436      	lsls	r6, r6, #16
100038a8:	0c2f      	lsrs	r7, r5, #16
100038aa:	433e      	orrs	r6, r7
100038ac:	042d      	lsls	r5, r5, #16
100038ae:	1b40      	subs	r0, r0, r5
100038b0:	41b1      	sbcs	r1, r6
100038b2:	4299      	cmp	r1, r3
100038b4:	d204      	bcs.n	100038c0 <y64_x64+0x44>
100038b6:	0002      	movs	r2, r0
100038b8:	000b      	movs	r3, r1
100038ba:	0020      	movs	r0, r4
100038bc:	2100      	movs	r1, #0
100038be:	bdf0      	pop	{r4, r5, r6, r7, pc}
100038c0:	d101      	bne.n	100038c6 <y64_x64+0x4a>
100038c2:	4290      	cmp	r0, r2
100038c4:	d3f7      	bcc.n	100038b6 <y64_x64+0x3a>
100038c6:	1a80      	subs	r0, r0, r2
100038c8:	4199      	sbcs	r1, r3
100038ca:	3401      	adds	r4, #1
100038cc:	4299      	cmp	r1, r3
100038ce:	d3f2      	bcc.n	100038b6 <y64_x64+0x3a>
100038d0:	e7f6      	b.n	100038c0 <y64_x64+0x44>
100038d2:	0000      	.short	0x0000
100038d4:	d0000000 	.word	0xd0000000
100038d8:	ffffffff 	.word	0xffffffff

100038dc <__wrap___aeabi_drsub>:
100038dc:	4048      	eors	r0, r1
100038de:	4041      	eors	r1, r0
100038e0:	4048      	eors	r0, r1

100038e2 <__wrap___aeabi_dsub>:
100038e2:	b418      	push	{r3, r4}
100038e4:	4b13      	ldr	r3, [pc, #76]	@ (10003934 <__wrap___aeabi_dmul+0xa>)
100038e6:	685b      	ldr	r3, [r3, #4]
100038e8:	9301      	str	r3, [sp, #4]
100038ea:	bd08      	pop	{r3, pc}

100038ec <__wrap___aeabi_dadd>:
100038ec:	b418      	push	{r3, r4}
100038ee:	4b11      	ldr	r3, [pc, #68]	@ (10003934 <__wrap___aeabi_dmul+0xa>)
100038f0:	681b      	ldr	r3, [r3, #0]
100038f2:	9301      	str	r3, [sp, #4]
100038f4:	bd08      	pop	{r3, pc}

100038f6 <__wrap___aeabi_ddiv>:
100038f6:	4694      	mov	ip, r2
100038f8:	4a0f      	ldr	r2, [pc, #60]	@ (10003938 <__wrap___aeabi_dmul+0xe>)
100038fa:	6f92      	ldr	r2, [r2, #120]	@ 0x78
100038fc:	0892      	lsrs	r2, r2, #2
100038fe:	d205      	bcs.n	1000390c <ddiv_save_state>
10003900:	4662      	mov	r2, ip

10003902 <ddiv_shim_call>:
10003902:	b418      	push	{r3, r4}
10003904:	4b0b      	ldr	r3, [pc, #44]	@ (10003934 <__wrap___aeabi_dmul+0xa>)
10003906:	68db      	ldr	r3, [r3, #12]
10003908:	9301      	str	r3, [sp, #4]
1000390a:	bd08      	pop	{r3, pc}

1000390c <ddiv_save_state>:
1000390c:	4a0a      	ldr	r2, [pc, #40]	@ (10003938 <__wrap___aeabi_dmul+0xe>)
1000390e:	b5f0      	push	{r4, r5, r6, r7, lr}
10003910:	6e14      	ldr	r4, [r2, #96]	@ 0x60
10003912:	6e55      	ldr	r5, [r2, #100]	@ 0x64
10003914:	6f57      	ldr	r7, [r2, #116]	@ 0x74
10003916:	6f16      	ldr	r6, [r2, #112]	@ 0x70
10003918:	4662      	mov	r2, ip
1000391a:	f7ff fff2 	bl	10003902 <ddiv_shim_call>
1000391e:	4a06      	ldr	r2, [pc, #24]	@ (10003938 <__wrap___aeabi_dmul+0xe>)
10003920:	6614      	str	r4, [r2, #96]	@ 0x60
10003922:	6655      	str	r5, [r2, #100]	@ 0x64
10003924:	6757      	str	r7, [r2, #116]	@ 0x74
10003926:	6716      	str	r6, [r2, #112]	@ 0x70
10003928:	bdf0      	pop	{r4, r5, r6, r7, pc}

1000392a <__wrap___aeabi_dmul>:
1000392a:	b418      	push	{r3, r4}
1000392c:	4b01      	ldr	r3, [pc, #4]	@ (10003934 <__wrap___aeabi_dmul+0xa>)
1000392e:	689b      	ldr	r3, [r3, #8]
10003930:	9301      	str	r3, [sp, #4]
10003932:	bd08      	pop	{r3, pc}
10003934:	20000390 	.word	0x20000390
10003938:	d0000000 	.word	0xd0000000

1000393c <__wrap___aeabi_cdrcmple>:
1000393c:	b5ff      	push	{r0, r1, r2, r3, r4, r5, r6, r7, lr}
1000393e:	4050      	eors	r0, r2
10003940:	4042      	eors	r2, r0
10003942:	4050      	eors	r0, r2
10003944:	4059      	eors	r1, r3
10003946:	404b      	eors	r3, r1
10003948:	4059      	eors	r1, r3
1000394a:	e000      	b.n	1000394e <__aeabi_dfcmple_guts>

1000394c <__wrap___aeabi_cdcmpeq>:
1000394c:	b5ff      	push	{r0, r1, r2, r3, r4, r5, r6, r7, lr}

1000394e <__aeabi_dfcmple_guts>:
1000394e:	4f15      	ldr	r7, [pc, #84]	@ (100039a4 <__aeabi_dfcmple_guts+0x56>)
10003950:	004c      	lsls	r4, r1, #1
10003952:	0d64      	lsrs	r4, r4, #21
10003954:	d003      	beq.n	1000395e <__aeabi_dfcmple_guts+0x10>
10003956:	42bc      	cmp	r4, r7
10003958:	d104      	bne.n	10003964 <__aeabi_dfcmple_guts+0x16>
1000395a:	030c      	lsls	r4, r1, #12
1000395c:	d814      	bhi.n	10003988 <__aeabi_dfcmple_guts+0x3a>
1000395e:	2000      	movs	r0, #0
10003960:	0d09      	lsrs	r1, r1, #20
10003962:	0509      	lsls	r1, r1, #20
10003964:	005c      	lsls	r4, r3, #1
10003966:	0d64      	lsrs	r4, r4, #21
10003968:	d003      	beq.n	10003972 <__aeabi_dfcmple_guts+0x24>
1000396a:	42bc      	cmp	r4, r7
1000396c:	d104      	bne.n	10003978 <__aeabi_dfcmple_guts+0x2a>
1000396e:	031c      	lsls	r4, r3, #12
10003970:	d80a      	bhi.n	10003988 <__aeabi_dfcmple_guts+0x3a>
10003972:	2200      	movs	r2, #0
10003974:	0d1b      	lsrs	r3, r3, #20
10003976:	051b      	lsls	r3, r3, #20
10003978:	2601      	movs	r6, #1
1000397a:	404b      	eors	r3, r1
1000397c:	d409      	bmi.n	10003992 <__aeabi_dfcmple_guts+0x44>
1000397e:	404b      	eors	r3, r1
10003980:	d503      	bpl.n	1000398a <__aeabi_dfcmple_guts+0x3c>
10003982:	428b      	cmp	r3, r1
10003984:	d100      	bne.n	10003988 <__aeabi_dfcmple_guts+0x3a>
10003986:	4282      	cmp	r2, r0
10003988:	bdff      	pop	{r0, r1, r2, r3, r4, r5, r6, r7, pc}
1000398a:	4299      	cmp	r1, r3
1000398c:	d1fc      	bne.n	10003988 <__aeabi_dfcmple_guts+0x3a>
1000398e:	4290      	cmp	r0, r2
10003990:	bdff      	pop	{r0, r1, r2, r3, r4, r5, r6, r7, pc}
10003992:	430b      	orrs	r3, r1
10003994:	18db      	adds	r3, r3, r3
10003996:	4303      	orrs	r3, r0
10003998:	4313      	orrs	r3, r2
1000399a:	d0f5      	beq.n	10003988 <__aeabi_dfcmple_guts+0x3a>
1000399c:	43c9      	mvns	r1, r1
1000399e:	1849      	adds	r1, r1, r1
100039a0:	bdff      	pop	{r0, r1, r2, r3, r4, r5, r6, r7, pc}
100039a2:	0000      	.short	0x0000
100039a4:	000007ff 	.word	0x000007ff

100039a8 <__wrap___aeabi_dcmplt>:
100039a8:	b500      	push	{lr}
100039aa:	f7ff ffcf 	bl	1000394c <__wrap___aeabi_cdcmpeq>
100039ae:	4180      	sbcs	r0, r0
100039b0:	bd00      	pop	{pc}
100039b2:	46c0      	nop			@ (mov r8, r8)

100039b4 <__wrap___aeabi_dcmpge>:
100039b4:	b500      	push	{lr}
100039b6:	f7ff ffc1 	bl	1000393c <__wrap___aeabi_cdrcmple>
100039ba:	d901      	bls.n	100039c0 <__wrap___aeabi_dcmpge+0xc>
100039bc:	2000      	movs	r0, #0
100039be:	bd00      	pop	{pc}
100039c0:	2001      	movs	r0, #1
100039c2:	bd00      	pop	{pc}

100039c4 <__wrap___aeabi_dcmpgt>:
100039c4:	b500      	push	{lr}
100039c6:	f7ff ffb9 	bl	1000393c <__wrap___aeabi_cdrcmple>
100039ca:	4180      	sbcs	r0, r0
100039cc:	bd00      	pop	{pc}

100039ce <__wrap___aeabi_dcmpun>:
100039ce:	2001      	movs	r0, #1
100039d0:	0540      	lsls	r0, r0, #21
100039d2:	004a      	lsls	r2, r1, #1
100039d4:	1812      	adds	r2, r2, r0
100039d6:	d804      	bhi.n	100039e2 <__wrap___aeabi_dcmpun+0x14>
100039d8:	005a      	lsls	r2, r3, #1
100039da:	1812      	adds	r2, r2, r0
100039dc:	d801      	bhi.n	100039e2 <__wrap___aeabi_dcmpun+0x14>
100039de:	2000      	movs	r0, #0
100039e0:	4770      	bx	lr
100039e2:	2001      	movs	r0, #1
100039e4:	4770      	bx	lr
100039e6:	2000      	movs	r0, #0
100039e8:	4770      	bx	lr
	...

100039ec <__wrap___aeabi_ui2d>:
100039ec:	2100      	movs	r1, #0
100039ee:	2800      	cmp	r0, #0
100039f0:	d105      	bne.n	100039fe <__wrap___aeabi_i2d+0xa>
100039f2:	4770      	bx	lr

100039f4 <__wrap___aeabi_i2d>:
100039f4:	17c1      	asrs	r1, r0, #31
100039f6:	4048      	eors	r0, r1
100039f8:	1a40      	subs	r0, r0, r1
100039fa:	d0fa      	beq.n	100039f2 <__wrap___aeabi_ui2d+0x6>
100039fc:	07c9      	lsls	r1, r1, #31
100039fe:	b513      	push	{r0, r1, r4, lr}
10003a00:	4b06      	ldr	r3, [pc, #24]	@ (10003a1c <__wrap___aeabi_i2d+0x28>)
10003a02:	681b      	ldr	r3, [r3, #0]
10003a04:	4798      	blx	r3
10003a06:	bc0c      	pop	{r2, r3}
10003a08:	1c44      	adds	r4, r0, #1
10003a0a:	40a2      	lsls	r2, r4
10003a0c:	0510      	lsls	r0, r2, #20
10003a0e:	0b12      	lsrs	r2, r2, #12
10003a10:	4903      	ldr	r1, [pc, #12]	@ (10003a20 <__wrap___aeabi_i2d+0x2c>)
10003a12:	1b09      	subs	r1, r1, r4
10003a14:	0509      	lsls	r1, r1, #20
10003a16:	4319      	orrs	r1, r3
10003a18:	4311      	orrs	r1, r2
10003a1a:	bd10      	pop	{r4, pc}
10003a1c:	20000528 	.word	0x20000528
10003a20:	0000041f 	.word	0x0000041f

10003a24 <__wrap___aeabi_d2iz>:
10003a24:	b510      	push	{r4, lr}
10003a26:	004c      	lsls	r4, r1, #1
10003a28:	0d62      	lsrs	r2, r4, #21
10003a2a:	2380      	movs	r3, #128	@ 0x80
10003a2c:	18d2      	adds	r2, r2, r3
10003a2e:	00db      	lsls	r3, r3, #3
10003a30:	1ad2      	subs	r2, r2, r3
10003a32:	055b      	lsls	r3, r3, #21
10003a34:	2a7e      	cmp	r2, #126	@ 0x7e
10003a36:	dd10      	ble.n	10003a5a <__wrap___aeabi_d2iz+0x36>
10003a38:	3a9e      	subs	r2, #158	@ 0x9e
10003a3a:	da13      	bge.n	10003a64 <__wrap___aeabi_d2iz+0x40>
10003a3c:	17cc      	asrs	r4, r1, #31
10003a3e:	0309      	lsls	r1, r1, #12
10003a40:	0849      	lsrs	r1, r1, #1
10003a42:	4319      	orrs	r1, r3
10003a44:	4252      	negs	r2, r2
10003a46:	40d1      	lsrs	r1, r2
10003a48:	0064      	lsls	r4, r4, #1
10003a4a:	3401      	adds	r4, #1
10003a4c:	3215      	adds	r2, #21
10003a4e:	2a20      	cmp	r2, #32
10003a50:	da05      	bge.n	10003a5e <__wrap___aeabi_d2iz+0x3a>
10003a52:	40d0      	lsrs	r0, r2
10003a54:	4308      	orrs	r0, r1
10003a56:	4360      	muls	r0, r4
10003a58:	bd10      	pop	{r4, pc}
10003a5a:	2000      	movs	r0, #0
10003a5c:	bd10      	pop	{r4, pc}
10003a5e:	4608      	mov	r0, r1
10003a60:	4360      	muls	r0, r4
10003a62:	bd10      	pop	{r4, pc}
10003a64:	0fc8      	lsrs	r0, r1, #31
10003a66:	18c0      	adds	r0, r0, r3
10003a68:	3801      	subs	r0, #1
10003a6a:	bd10      	pop	{r4, pc}

10003a6c <__wrap___aeabi_d2uiz>:
10003a6c:	b418      	push	{r3, r4}
10003a6e:	4b02      	ldr	r3, [pc, #8]	@ (10003a78 <__wrap___aeabi_d2uiz+0xc>)
10003a70:	6a5b      	ldr	r3, [r3, #36]	@ 0x24
10003a72:	9301      	str	r3, [sp, #4]
10003a74:	bd08      	pop	{r3, pc}
10003a76:	0000      	.short	0x0000
10003a78:	20000390 	.word	0x20000390

10003a7c <__wrap___aeabi_d2f>:
10003a7c:	b418      	push	{r3, r4}
10003a7e:	4b02      	ldr	r3, [pc, #8]	@ (10003a88 <__wrap___aeabi_d2f+0xc>)
10003a80:	6fdb      	ldr	r3, [r3, #124]	@ 0x7c
10003a82:	9301      	str	r3, [sp, #4]
10003a84:	bd08      	pop	{r3, pc}
10003a86:	0000      	.short	0x0000
10003a88:	20000390 	.word	0x20000390

10003a8c <missing_double_func_shim>:
10003a8c:	b510      	push	{r4, lr}
10003a8e:	4801      	ldr	r0, [pc, #4]	@ (10003a94 <missing_double_func_shim+0x8>)
10003a90:	f7fe f952 	bl	10001d38 <panic>
10003a94:	10004ba8 	.word	0x10004ba8

10003a98 <__aeabi_double_init>:
10003a98:	2313      	movs	r3, #19
10003a9a:	b570      	push	{r4, r5, r6, lr}
10003a9c:	781d      	ldrb	r5, [r3, #0]
10003a9e:	2d01      	cmp	r5, #1
10003aa0:	d015      	beq.n	10003ace <__aeabi_double_init+0x36>
10003aa2:	dd10      	ble.n	10003ac6 <__aeabi_double_init+0x2e>
10003aa4:	481b      	ldr	r0, [pc, #108]	@ (10003b14 <__aeabi_double_init+0x7c>)
10003aa6:	f7ff fc8f 	bl	100033c8 <rom_data_lookup>
10003aaa:	4c1b      	ldr	r4, [pc, #108]	@ (10003b18 <__aeabi_double_init+0x80>)
10003aac:	0001      	movs	r1, r0
10003aae:	2280      	movs	r2, #128	@ 0x80
10003ab0:	0020      	movs	r0, r4
10003ab2:	f000 f8f9 	bl	10003ca8 <__wrap___aeabi_memcpy>
10003ab6:	2d02      	cmp	r5, #2
10003ab8:	d006      	beq.n	10003ac8 <__aeabi_double_init+0x30>
10003aba:	4818      	ldr	r0, [pc, #96]	@ (10003b1c <__aeabi_double_init+0x84>)
10003abc:	f7ff fc7c 	bl	100033b8 <rom_func_lookup>
10003ac0:	4b17      	ldr	r3, [pc, #92]	@ (10003b20 <__aeabi_double_init+0x88>)
10003ac2:	6018      	str	r0, [r3, #0]
10003ac4:	bd70      	pop	{r4, r5, r6, pc}
10003ac6:	4c14      	ldr	r4, [pc, #80]	@ (10003b18 <__aeabi_double_init+0x80>)
10003ac8:	4b16      	ldr	r3, [pc, #88]	@ (10003b24 <__aeabi_double_init+0x8c>)
10003aca:	64a3      	str	r3, [r4, #72]	@ 0x48
10003acc:	e7f5      	b.n	10003aba <__aeabi_double_init+0x22>
10003ace:	4b16      	ldr	r3, [pc, #88]	@ (10003b28 <__aeabi_double_init+0x90>)
10003ad0:	4c11      	ldr	r4, [pc, #68]	@ (10003b18 <__aeabi_double_init+0x80>)
10003ad2:	6023      	str	r3, [r4, #0]
10003ad4:	6063      	str	r3, [r4, #4]
10003ad6:	60a3      	str	r3, [r4, #8]
10003ad8:	60e3      	str	r3, [r4, #12]
10003ada:	6123      	str	r3, [r4, #16]
10003adc:	6163      	str	r3, [r4, #20]
10003ade:	61a3      	str	r3, [r4, #24]
10003ae0:	61e3      	str	r3, [r4, #28]
10003ae2:	6223      	str	r3, [r4, #32]
10003ae4:	6263      	str	r3, [r4, #36]	@ 0x24
10003ae6:	62a3      	str	r3, [r4, #40]	@ 0x28
10003ae8:	62e3      	str	r3, [r4, #44]	@ 0x2c
10003aea:	6323      	str	r3, [r4, #48]	@ 0x30
10003aec:	6363      	str	r3, [r4, #52]	@ 0x34
10003aee:	63a3      	str	r3, [r4, #56]	@ 0x38
10003af0:	63e3      	str	r3, [r4, #60]	@ 0x3c
10003af2:	6423      	str	r3, [r4, #64]	@ 0x40
10003af4:	6463      	str	r3, [r4, #68]	@ 0x44
10003af6:	64a3      	str	r3, [r4, #72]	@ 0x48
10003af8:	64e3      	str	r3, [r4, #76]	@ 0x4c
10003afa:	6523      	str	r3, [r4, #80]	@ 0x50
10003afc:	6563      	str	r3, [r4, #84]	@ 0x54
10003afe:	65a3      	str	r3, [r4, #88]	@ 0x58
10003b00:	65e3      	str	r3, [r4, #92]	@ 0x5c
10003b02:	6623      	str	r3, [r4, #96]	@ 0x60
10003b04:	6663      	str	r3, [r4, #100]	@ 0x64
10003b06:	66a3      	str	r3, [r4, #104]	@ 0x68
10003b08:	66e3      	str	r3, [r4, #108]	@ 0x6c
10003b0a:	6723      	str	r3, [r4, #112]	@ 0x70
10003b0c:	6763      	str	r3, [r4, #116]	@ 0x74
10003b0e:	67a3      	str	r3, [r4, #120]	@ 0x78
10003b10:	67e3      	str	r3, [r4, #124]	@ 0x7c
10003b12:	e7d9      	b.n	10003ac8 <__aeabi_double_init+0x30>
10003b14:	00004453 	.word	0x00004453
10003b18:	20000390 	.word	0x20000390
10003b1c:	0000334c 	.word	0x0000334c
10003b20:	20000528 	.word	0x20000528
10003b24:	10003b2d 	.word	0x10003b2d
10003b28:	10003a8d 	.word	0x10003a8d

10003b2c <double_table_shim_on_use_helper>:
10003b2c:	b507      	push	{r0, r1, r2, lr}
10003b2e:	4660      	mov	r0, ip
10003b30:	8801      	ldrh	r1, [r0, #0]
10003b32:	0a0a      	lsrs	r2, r1, #8
10003b34:	3002      	adds	r0, #2
10003b36:	2adf      	cmp	r2, #223	@ 0xdf
10003b38:	d1fa      	bne.n	10003b30 <double_table_shim_on_use_helper+0x4>
10003b3a:	b2c9      	uxtb	r1, r1
10003b3c:	0882      	lsrs	r2, r0, #2
10003b3e:	d304      	bcc.n	10003b4a <double_table_shim_on_use_helper+0x1e>
10003b40:	8802      	ldrh	r2, [r0, #0]
10003b42:	8840      	ldrh	r0, [r0, #2]
10003b44:	0400      	lsls	r0, r0, #16
10003b46:	4310      	orrs	r0, r2
10003b48:	e000      	b.n	10003b4c <double_table_shim_on_use_helper+0x20>
10003b4a:	6800      	ldr	r0, [r0, #0]
10003b4c:	4a01      	ldr	r2, [pc, #4]	@ (10003b54 <double_table_shim_on_use_helper+0x28>)
10003b4e:	5050      	str	r0, [r2, r1]
10003b50:	9003      	str	r0, [sp, #12]
10003b52:	bd07      	pop	{r0, r1, r2, pc}
10003b54:	20000390 	.word	0x20000390

10003b58 <__wrap___aeabi_lmul>:
10003b58:	4351      	muls	r1, r2
10003b5a:	4343      	muls	r3, r0
10003b5c:	18c9      	adds	r1, r1, r3
10003b5e:	468c      	mov	ip, r1
10003b60:	0c11      	lsrs	r1, r2, #16
10003b62:	b283      	uxth	r3, r0
10003b64:	434b      	muls	r3, r1
10003b66:	b410      	push	{r4}
10003b68:	0c04      	lsrs	r4, r0, #16
10003b6a:	4361      	muls	r1, r4
10003b6c:	b292      	uxth	r2, r2
10003b6e:	b280      	uxth	r0, r0
10003b70:	4350      	muls	r0, r2
10003b72:	4362      	muls	r2, r4
10003b74:	041c      	lsls	r4, r3, #16
10003b76:	0c1b      	lsrs	r3, r3, #16
10003b78:	1900      	adds	r0, r0, r4
10003b7a:	bc10      	pop	{r4}
10003b7c:	4159      	adcs	r1, r3
10003b7e:	0413      	lsls	r3, r2, #16
10003b80:	0c12      	lsrs	r2, r2, #16
10003b82:	18c0      	adds	r0, r0, r3
10003b84:	4151      	adcs	r1, r2
10003b86:	4461      	add	r1, ip
10003b88:	4770      	bx	lr
	...

10003b8c <__wrap___aeabi_frsub>:
10003b8c:	4048      	eors	r0, r1
10003b8e:	4041      	eors	r1, r0
10003b90:	4048      	eors	r0, r1

10003b92 <__wrap___aeabi_fsub>:
10003b92:	4b0e      	ldr	r3, [pc, #56]	@ (10003bcc <__wrap___aeabi_fmul+0x6>)
10003b94:	685b      	ldr	r3, [r3, #4]
10003b96:	4718      	bx	r3

10003b98 <__wrap___aeabi_fadd>:
10003b98:	4b0c      	ldr	r3, [pc, #48]	@ (10003bcc <__wrap___aeabi_fmul+0x6>)
10003b9a:	681b      	ldr	r3, [r3, #0]
10003b9c:	4718      	bx	r3

10003b9e <__wrap___aeabi_fdiv>:
10003b9e:	4a0c      	ldr	r2, [pc, #48]	@ (10003bd0 <__wrap___aeabi_fmul+0xa>)
10003ba0:	6f93      	ldr	r3, [r2, #120]	@ 0x78
10003ba2:	089b      	lsrs	r3, r3, #2
10003ba4:	d202      	bcs.n	10003bac <fdiv_save_state>

10003ba6 <fdiv_shim_call>:
10003ba6:	4b09      	ldr	r3, [pc, #36]	@ (10003bcc <__wrap___aeabi_fmul+0x6>)
10003ba8:	68db      	ldr	r3, [r3, #12]
10003baa:	4718      	bx	r3

10003bac <fdiv_save_state>:
10003bac:	b5f0      	push	{r4, r5, r6, r7, lr}
10003bae:	6e14      	ldr	r4, [r2, #96]	@ 0x60
10003bb0:	6e55      	ldr	r5, [r2, #100]	@ 0x64
10003bb2:	6f57      	ldr	r7, [r2, #116]	@ 0x74
10003bb4:	6f16      	ldr	r6, [r2, #112]	@ 0x70
10003bb6:	f7ff fff6 	bl	10003ba6 <fdiv_shim_call>
10003bba:	4a05      	ldr	r2, [pc, #20]	@ (10003bd0 <__wrap___aeabi_fmul+0xa>)
10003bbc:	6614      	str	r4, [r2, #96]	@ 0x60
10003bbe:	6655      	str	r5, [r2, #100]	@ 0x64
10003bc0:	6757      	str	r7, [r2, #116]	@ 0x74
10003bc2:	6716      	str	r6, [r2, #112]	@ 0x70
10003bc4:	bdf0      	pop	{r4, r5, r6, r7, pc}

10003bc6 <__wrap___aeabi_fmul>:
10003bc6:	4b01      	ldr	r3, [pc, #4]	@ (10003bcc <__wrap___aeabi_fmul+0x6>)
10003bc8:	689b      	ldr	r3, [r3, #8]
10003bca:	4718      	bx	r3
10003bcc:	2000052c 	.word	0x2000052c
10003bd0:	d0000000 	.word	0xd0000000

10003bd4 <__wrap___aeabi_ui2f>:
10003bd4:	1a49      	subs	r1, r1, r1
10003bd6:	2800      	cmp	r0, #0
10003bd8:	d108      	bne.n	10003bec <__aeabi_i2f_main>
10003bda:	4608      	mov	r0, r1
10003bdc:	4770      	bx	lr
	...

10003be0 <__wrap___aeabi_i2f>:
10003be0:	0fc1      	lsrs	r1, r0, #31
10003be2:	07c9      	lsls	r1, r1, #31
10003be4:	d500      	bpl.n	10003be8 <__wrap___aeabi_i2f+0x8>
10003be6:	4240      	negs	r0, r0
10003be8:	2800      	cmp	r0, #0
10003bea:	d017      	beq.n	10003c1c <__aeabi_i2f_main+0x30>

10003bec <__aeabi_i2f_main>:
10003bec:	46f4      	mov	ip, lr
10003bee:	b403      	push	{r0, r1}
10003bf0:	4b0b      	ldr	r3, [pc, #44]	@ (10003c20 <__aeabi_i2f_main+0x34>)
10003bf2:	681b      	ldr	r3, [r3, #0]
10003bf4:	4798      	blx	r3
10003bf6:	bc06      	pop	{r1, r2}
10003bf8:	4081      	lsls	r1, r0
10003bfa:	389e      	subs	r0, #158	@ 0x9e
10003bfc:	4240      	negs	r0, r0
10003bfe:	3180      	adds	r1, #128	@ 0x80
10003c00:	d207      	bcs.n	10003c12 <__aeabi_i2f_main+0x26>
10003c02:	060b      	lsls	r3, r1, #24
10003c04:	d007      	beq.n	10003c16 <__aeabi_i2f_main+0x2a>
10003c06:	0049      	lsls	r1, r1, #1
10003c08:	0a49      	lsrs	r1, r1, #9
10003c0a:	05c0      	lsls	r0, r0, #23
10003c0c:	4310      	orrs	r0, r2
10003c0e:	4308      	orrs	r0, r1
10003c10:	4760      	bx	ip
10003c12:	3001      	adds	r0, #1
10003c14:	e7f8      	b.n	10003c08 <__aeabi_i2f_main+0x1c>
10003c16:	0a49      	lsrs	r1, r1, #9
10003c18:	0289      	lsls	r1, r1, #10
10003c1a:	e7f5      	b.n	10003c08 <__aeabi_i2f_main+0x1c>
10003c1c:	4770      	bx	lr
10003c1e:	0000      	.short	0x0000
10003c20:	20000528 	.word	0x20000528

10003c24 <__wrap___aeabi_f2uiz>:
10003c24:	4b01      	ldr	r3, [pc, #4]	@ (10003c2c <__wrap___aeabi_f2uiz+0x8>)
10003c26:	6a5b      	ldr	r3, [r3, #36]	@ 0x24
10003c28:	4718      	bx	r3
10003c2a:	0000      	.short	0x0000
10003c2c:	2000052c 	.word	0x2000052c

10003c30 <missing_float_func_shim>:
10003c30:	b510      	push	{r4, lr}
10003c32:	4801      	ldr	r0, [pc, #4]	@ (10003c38 <missing_float_func_shim+0x8>)
10003c34:	f7fe f880 	bl	10001d38 <panic>
10003c38:	100049a4 	.word	0x100049a4

10003c3c <__aeabi_float_init>:
10003c3c:	2313      	movs	r3, #19
10003c3e:	b510      	push	{r4, lr}
10003c40:	4810      	ldr	r0, [pc, #64]	@ (10003c84 <__aeabi_float_init+0x48>)
10003c42:	781c      	ldrb	r4, [r3, #0]
10003c44:	f7ff fbc0 	bl	100033c8 <rom_data_lookup>
10003c48:	0001      	movs	r1, r0
10003c4a:	2c01      	cmp	r4, #1
10003c4c:	d00a      	beq.n	10003c64 <__aeabi_float_init+0x28>
10003c4e:	dd03      	ble.n	10003c58 <__aeabi_float_init+0x1c>
10003c50:	2280      	movs	r2, #128	@ 0x80
10003c52:	480d      	ldr	r0, [pc, #52]	@ (10003c88 <__aeabi_float_init+0x4c>)
10003c54:	f000 f828 	bl	10003ca8 <__wrap___aeabi_memcpy>
10003c58:	480c      	ldr	r0, [pc, #48]	@ (10003c8c <__aeabi_float_init+0x50>)
10003c5a:	f7ff fbad 	bl	100033b8 <rom_func_lookup>
10003c5e:	4b0c      	ldr	r3, [pc, #48]	@ (10003c90 <__aeabi_float_init+0x54>)
10003c60:	6018      	str	r0, [r3, #0]
10003c62:	bd10      	pop	{r4, pc}
10003c64:	4c08      	ldr	r4, [pc, #32]	@ (10003c88 <__aeabi_float_init+0x4c>)
10003c66:	2254      	movs	r2, #84	@ 0x54
10003c68:	0020      	movs	r0, r4
10003c6a:	f000 f81d 	bl	10003ca8 <__wrap___aeabi_memcpy>
10003c6e:	0022      	movs	r2, r4
10003c70:	4908      	ldr	r1, [pc, #32]	@ (10003c94 <__aeabi_float_init+0x58>)
10003c72:	3280      	adds	r2, #128	@ 0x80
10003c74:	6823      	ldr	r3, [r4, #0]
10003c76:	2b00      	cmp	r3, #0
10003c78:	d100      	bne.n	10003c7c <__aeabi_float_init+0x40>
10003c7a:	6021      	str	r1, [r4, #0]
10003c7c:	3404      	adds	r4, #4
10003c7e:	4294      	cmp	r4, r2
10003c80:	d1f8      	bne.n	10003c74 <__aeabi_float_init+0x38>
10003c82:	e7e9      	b.n	10003c58 <__aeabi_float_init+0x1c>
10003c84:	00004653 	.word	0x00004653
10003c88:	2000052c 	.word	0x2000052c
10003c8c:	0000334c 	.word	0x0000334c
10003c90:	20000528 	.word	0x20000528
10003c94:	10003c31 	.word	0x10003c31

10003c98 <__aeabi_mem_init>:
10003c98:	4801      	ldr	r0, [pc, #4]	@ (10003ca0 <__aeabi_mem_init+0x8>)
10003c9a:	2104      	movs	r1, #4
10003c9c:	4b01      	ldr	r3, [pc, #4]	@ (10003ca4 <__aeabi_mem_init+0xc>)
10003c9e:	4718      	bx	r3
10003ca0:	20000220 	.word	0x20000220
10003ca4:	100033d9 	.word	0x100033d9

10003ca8 <__wrap___aeabi_memcpy>:
10003ca8:	4b01      	ldr	r3, [pc, #4]	@ (10003cb0 <__wrap___aeabi_memcpy+0x8>)
10003caa:	685b      	ldr	r3, [r3, #4]
10003cac:	4718      	bx	r3
10003cae:	0000      	.short	0x0000
10003cb0:	20000220 	.word	0x20000220

10003cb4 <stdio_out_chars_crlf>:
10003cb4:	b5f0      	push	{r4, r5, r6, r7, lr}
10003cb6:	4646      	mov	r6, r8
10003cb8:	464f      	mov	r7, r9
10003cba:	46d6      	mov	lr, sl
10003cbc:	b5c0      	push	{r6, r7, lr}
10003cbe:	7d43      	ldrb	r3, [r0, #21]
10003cc0:	4680      	mov	r8, r0
10003cc2:	000e      	movs	r6, r1
10003cc4:	0017      	movs	r7, r2
10003cc6:	2b00      	cmp	r3, #0
10003cc8:	d04b      	beq.n	10003d62 <stdio_out_chars_crlf+0xae>
10003cca:	2a00      	cmp	r2, #0
10003ccc:	dd32      	ble.n	10003d34 <stdio_out_chars_crlf+0x80>
10003cce:	4b27      	ldr	r3, [pc, #156]	@ (10003d6c <stdio_out_chars_crlf+0xb8>)
10003cd0:	2501      	movs	r5, #1
10003cd2:	469a      	mov	sl, r3
10003cd4:	1e4b      	subs	r3, r1, #1
10003cd6:	2400      	movs	r4, #0
10003cd8:	2000      	movs	r0, #0
10003cda:	4699      	mov	r9, r3
10003cdc:	e007      	b.n	10003cee <stdio_out_chars_crlf+0x3a>
10003cde:	5d33      	ldrb	r3, [r6, r4]
10003ce0:	2b0a      	cmp	r3, #10
10003ce2:	d02c      	beq.n	10003d3e <stdio_out_chars_crlf+0x8a>
10003ce4:	002b      	movs	r3, r5
10003ce6:	3401      	adds	r4, #1
10003ce8:	3501      	adds	r5, #1
10003cea:	42bb      	cmp	r3, r7
10003cec:	da13      	bge.n	10003d16 <stdio_out_chars_crlf+0x62>
10003cee:	2c00      	cmp	r4, #0
10003cf0:	d1f5      	bne.n	10003cde <stdio_out_chars_crlf+0x2a>
10003cf2:	7833      	ldrb	r3, [r6, #0]
10003cf4:	2b0a      	cmp	r3, #10
10003cf6:	d1f5      	bne.n	10003ce4 <stdio_out_chars_crlf+0x30>
10003cf8:	4643      	mov	r3, r8
10003cfa:	7d1b      	ldrb	r3, [r3, #20]
10003cfc:	2b00      	cmp	r3, #0
10003cfe:	d1f1      	bne.n	10003ce4 <stdio_out_chars_crlf+0x30>
10003d00:	4643      	mov	r3, r8
10003d02:	4650      	mov	r0, sl
10003d04:	2102      	movs	r1, #2
10003d06:	681b      	ldr	r3, [r3, #0]
10003d08:	4798      	blx	r3
10003d0a:	0028      	movs	r0, r5
10003d0c:	002b      	movs	r3, r5
10003d0e:	3401      	adds	r4, #1
10003d10:	3501      	adds	r5, #1
10003d12:	42bb      	cmp	r3, r7
10003d14:	dbeb      	blt.n	10003cee <stdio_out_chars_crlf+0x3a>
10003d16:	4287      	cmp	r7, r0
10003d18:	dd04      	ble.n	10003d24 <stdio_out_chars_crlf+0x70>
10003d1a:	4643      	mov	r3, r8
10003d1c:	1a39      	subs	r1, r7, r0
10003d1e:	681b      	ldr	r3, [r3, #0]
10003d20:	1830      	adds	r0, r6, r0
10003d22:	4798      	blx	r3
10003d24:	19f6      	adds	r6, r6, r7
10003d26:	3e01      	subs	r6, #1
10003d28:	7833      	ldrb	r3, [r6, #0]
10003d2a:	3b0d      	subs	r3, #13
10003d2c:	425a      	negs	r2, r3
10003d2e:	4153      	adcs	r3, r2
10003d30:	4642      	mov	r2, r8
10003d32:	7513      	strb	r3, [r2, #20]
10003d34:	bce0      	pop	{r5, r6, r7}
10003d36:	46ba      	mov	sl, r7
10003d38:	46b1      	mov	r9, r6
10003d3a:	46a8      	mov	r8, r5
10003d3c:	bdf0      	pop	{r4, r5, r6, r7, pc}
10003d3e:	464b      	mov	r3, r9
10003d40:	5d1b      	ldrb	r3, [r3, r4]
10003d42:	2b0d      	cmp	r3, #13
10003d44:	d0ce      	beq.n	10003ce4 <stdio_out_chars_crlf+0x30>
10003d46:	42a0      	cmp	r0, r4
10003d48:	dada      	bge.n	10003d00 <stdio_out_chars_crlf+0x4c>
10003d4a:	4643      	mov	r3, r8
10003d4c:	1a21      	subs	r1, r4, r0
10003d4e:	681b      	ldr	r3, [r3, #0]
10003d50:	1830      	adds	r0, r6, r0
10003d52:	4798      	blx	r3
10003d54:	4643      	mov	r3, r8
10003d56:	4650      	mov	r0, sl
10003d58:	2102      	movs	r1, #2
10003d5a:	681b      	ldr	r3, [r3, #0]
10003d5c:	4798      	blx	r3
10003d5e:	0028      	movs	r0, r5
10003d60:	e7d4      	b.n	10003d0c <stdio_out_chars_crlf+0x58>
10003d62:	6803      	ldr	r3, [r0, #0]
10003d64:	0011      	movs	r1, r2
10003d66:	0030      	movs	r0, r6
10003d68:	4798      	blx	r3
10003d6a:	e7e3      	b.n	10003d34 <stdio_out_chars_crlf+0x80>
10003d6c:	10004c8c 	.word	0x10004c8c

10003d70 <stdio_buffered_printer>:
10003d70:	b5f0      	push	{r4, r5, r6, r7, lr}
10003d72:	46c6      	mov	lr, r8
10003d74:	680b      	ldr	r3, [r1, #0]
10003d76:	0006      	movs	r6, r0
10003d78:	000c      	movs	r4, r1
10003d7a:	b500      	push	{lr}
10003d7c:	2b80      	cmp	r3, #128	@ 0x80
10003d7e:	d006      	beq.n	10003d8e <stdio_buffered_printer+0x1e>
10003d80:	1c5a      	adds	r2, r3, #1
10003d82:	6022      	str	r2, [r4, #0]
10003d84:	18e4      	adds	r4, r4, r3
10003d86:	7126      	strb	r6, [r4, #4]
10003d88:	bc80      	pop	{r7}
10003d8a:	46b8      	mov	r8, r7
10003d8c:	bdf0      	pop	{r4, r5, r6, r7, pc}
10003d8e:	4b0f      	ldr	r3, [pc, #60]	@ (10003dcc <stdio_buffered_printer+0x5c>)
10003d90:	681d      	ldr	r5, [r3, #0]
10003d92:	2d00      	cmp	r5, #0
10003d94:	d016      	beq.n	10003dc4 <stdio_buffered_printer+0x54>
10003d96:	1d0b      	adds	r3, r1, #4
10003d98:	4698      	mov	r8, r3
10003d9a:	4f0d      	ldr	r7, [pc, #52]	@ (10003dd0 <stdio_buffered_printer+0x60>)
10003d9c:	e002      	b.n	10003da4 <stdio_buffered_printer+0x34>
10003d9e:	692d      	ldr	r5, [r5, #16]
10003da0:	2d00      	cmp	r5, #0
10003da2:	d00f      	beq.n	10003dc4 <stdio_buffered_printer+0x54>
10003da4:	682b      	ldr	r3, [r5, #0]
10003da6:	2b00      	cmp	r3, #0
10003da8:	d0f9      	beq.n	10003d9e <stdio_buffered_printer+0x2e>
10003daa:	683b      	ldr	r3, [r7, #0]
10003dac:	2b00      	cmp	r3, #0
10003dae:	d001      	beq.n	10003db4 <stdio_buffered_printer+0x44>
10003db0:	42ab      	cmp	r3, r5
10003db2:	d1f4      	bne.n	10003d9e <stdio_buffered_printer+0x2e>
10003db4:	0028      	movs	r0, r5
10003db6:	4641      	mov	r1, r8
10003db8:	6822      	ldr	r2, [r4, #0]
10003dba:	f7ff ff7b 	bl	10003cb4 <stdio_out_chars_crlf>
10003dbe:	692d      	ldr	r5, [r5, #16]
10003dc0:	2d00      	cmp	r5, #0
10003dc2:	d1ef      	bne.n	10003da4 <stdio_buffered_printer+0x34>
10003dc4:	2201      	movs	r2, #1
10003dc6:	2300      	movs	r3, #0
10003dc8:	e7db      	b.n	10003d82 <stdio_buffered_printer+0x12>
10003dca:	46c0      	nop			@ (mov r8, r8)
10003dcc:	2000050c 	.word	0x2000050c
10003dd0:	20000510 	.word	0x20000510

10003dd4 <__wrap_putchar>:
10003dd4:	b5f0      	push	{r4, r5, r6, r7, lr}
10003dd6:	46ce      	mov	lr, r9
10003dd8:	4647      	mov	r7, r8
10003dda:	b580      	push	{r7, lr}
10003ddc:	b083      	sub	sp, #12
10003dde:	466b      	mov	r3, sp
10003de0:	0006      	movs	r6, r0
10003de2:	1ddd      	adds	r5, r3, #7
10003de4:	7028      	strb	r0, [r5, #0]
10003de6:	f7fd f99b 	bl	10001120 <time_us_64>
10003dea:	2300      	movs	r3, #0
10003dec:	4a1a      	ldr	r2, [pc, #104]	@ (10003e58 <__wrap_putchar+0x84>)
10003dee:	1812      	adds	r2, r2, r0
10003df0:	414b      	adcs	r3, r1
10003df2:	2180      	movs	r1, #128	@ 0x80
10003df4:	0609      	lsls	r1, r1, #24
10003df6:	428b      	cmp	r3, r1
10003df8:	d302      	bcc.n	10003e00 <__wrap_putchar+0x2c>
10003dfa:	2201      	movs	r2, #1
10003dfc:	4b17      	ldr	r3, [pc, #92]	@ (10003e5c <__wrap_putchar+0x88>)
10003dfe:	4252      	negs	r2, r2
10003e00:	4917      	ldr	r1, [pc, #92]	@ (10003e60 <__wrap_putchar+0x8c>)
10003e02:	0008      	movs	r0, r1
10003e04:	4688      	mov	r8, r1
10003e06:	f000 fd77 	bl	100048f8 <__mutex_try_enter_block_until_veneer>
10003e0a:	4b16      	ldr	r3, [pc, #88]	@ (10003e64 <__wrap_putchar+0x90>)
10003e0c:	4681      	mov	r9, r0
10003e0e:	681c      	ldr	r4, [r3, #0]
10003e10:	2c00      	cmp	r4, #0
10003e12:	d014      	beq.n	10003e3e <__wrap_putchar+0x6a>
10003e14:	4f14      	ldr	r7, [pc, #80]	@ (10003e68 <__wrap_putchar+0x94>)
10003e16:	e002      	b.n	10003e1e <__wrap_putchar+0x4a>
10003e18:	6924      	ldr	r4, [r4, #16]
10003e1a:	2c00      	cmp	r4, #0
10003e1c:	d00f      	beq.n	10003e3e <__wrap_putchar+0x6a>
10003e1e:	6823      	ldr	r3, [r4, #0]
10003e20:	2b00      	cmp	r3, #0
10003e22:	d0f9      	beq.n	10003e18 <__wrap_putchar+0x44>
10003e24:	683b      	ldr	r3, [r7, #0]
10003e26:	2b00      	cmp	r3, #0
10003e28:	d001      	beq.n	10003e2e <__wrap_putchar+0x5a>
10003e2a:	42a3      	cmp	r3, r4
10003e2c:	d1f4      	bne.n	10003e18 <__wrap_putchar+0x44>
10003e2e:	0020      	movs	r0, r4
10003e30:	2201      	movs	r2, #1
10003e32:	0029      	movs	r1, r5
10003e34:	f7ff ff3e 	bl	10003cb4 <stdio_out_chars_crlf>
10003e38:	6924      	ldr	r4, [r4, #16]
10003e3a:	2c00      	cmp	r4, #0
10003e3c:	d1ef      	bne.n	10003e1e <__wrap_putchar+0x4a>
10003e3e:	464b      	mov	r3, r9
10003e40:	2b00      	cmp	r3, #0
10003e42:	d105      	bne.n	10003e50 <__wrap_putchar+0x7c>
10003e44:	0030      	movs	r0, r6
10003e46:	b003      	add	sp, #12
10003e48:	bcc0      	pop	{r6, r7}
10003e4a:	46b9      	mov	r9, r7
10003e4c:	46b0      	mov	r8, r6
10003e4e:	bdf0      	pop	{r4, r5, r6, r7, pc}
10003e50:	4640      	mov	r0, r8
10003e52:	f000 fd39 	bl	100048c8 <__mutex_exit_veneer>
10003e56:	e7f5      	b.n	10003e44 <__wrap_putchar+0x70>
10003e58:	000f4240 	.word	0x000f4240
10003e5c:	7fffffff 	.word	0x7fffffff
10003e60:	20000248 	.word	0x20000248
10003e64:	2000050c 	.word	0x2000050c
10003e68:	20000510 	.word	0x20000510

10003e6c <__wrap_puts>:
10003e6c:	b5f0      	push	{r4, r5, r6, r7, lr}
10003e6e:	46de      	mov	lr, fp
10003e70:	4657      	mov	r7, sl
10003e72:	464e      	mov	r6, r9
10003e74:	4645      	mov	r5, r8
10003e76:	b5e0      	push	{r5, r6, r7, lr}
10003e78:	b085      	sub	sp, #20
10003e7a:	0007      	movs	r7, r0
10003e7c:	f000 fcf4 	bl	10004868 <strlen>
10003e80:	0006      	movs	r6, r0
10003e82:	f7fd f94d 	bl	10001120 <time_us_64>
10003e86:	2300      	movs	r3, #0
10003e88:	4a2b      	ldr	r2, [pc, #172]	@ (10003f38 <__wrap_puts+0xcc>)
10003e8a:	1812      	adds	r2, r2, r0
10003e8c:	414b      	adcs	r3, r1
10003e8e:	2180      	movs	r1, #128	@ 0x80
10003e90:	0609      	lsls	r1, r1, #24
10003e92:	428b      	cmp	r3, r1
10003e94:	d302      	bcc.n	10003e9c <__wrap_puts+0x30>
10003e96:	2201      	movs	r2, #1
10003e98:	4b28      	ldr	r3, [pc, #160]	@ (10003f3c <__wrap_puts+0xd0>)
10003e9a:	4252      	negs	r2, r2
10003e9c:	4928      	ldr	r1, [pc, #160]	@ (10003f40 <__wrap_puts+0xd4>)
10003e9e:	0008      	movs	r0, r1
10003ea0:	468b      	mov	fp, r1
10003ea2:	f000 fd29 	bl	100048f8 <__mutex_try_enter_block_until_veneer>
10003ea6:	4b27      	ldr	r3, [pc, #156]	@ (10003f44 <__wrap_puts+0xd8>)
10003ea8:	9001      	str	r0, [sp, #4]
10003eaa:	681c      	ldr	r4, [r3, #0]
10003eac:	469a      	mov	sl, r3
10003eae:	2c00      	cmp	r4, #0
10003eb0:	d03b      	beq.n	10003f2a <__wrap_puts+0xbe>
10003eb2:	4b25      	ldr	r3, [pc, #148]	@ (10003f48 <__wrap_puts+0xdc>)
10003eb4:	4698      	mov	r8, r3
10003eb6:	ab02      	add	r3, sp, #8
10003eb8:	1ddd      	adds	r5, r3, #7
10003eba:	230a      	movs	r3, #10
10003ebc:	4699      	mov	r9, r3
10003ebe:	e002      	b.n	10003ec6 <__wrap_puts+0x5a>
10003ec0:	6924      	ldr	r4, [r4, #16]
10003ec2:	2c00      	cmp	r4, #0
10003ec4:	d017      	beq.n	10003ef6 <__wrap_puts+0x8a>
10003ec6:	6823      	ldr	r3, [r4, #0]
10003ec8:	2b00      	cmp	r3, #0
10003eca:	d0f9      	beq.n	10003ec0 <__wrap_puts+0x54>
10003ecc:	4643      	mov	r3, r8
10003ece:	681b      	ldr	r3, [r3, #0]
10003ed0:	2b00      	cmp	r3, #0
10003ed2:	d001      	beq.n	10003ed8 <__wrap_puts+0x6c>
10003ed4:	42a3      	cmp	r3, r4
10003ed6:	d1f3      	bne.n	10003ec0 <__wrap_puts+0x54>
10003ed8:	0020      	movs	r0, r4
10003eda:	0032      	movs	r2, r6
10003edc:	0039      	movs	r1, r7
10003ede:	f7ff fee9 	bl	10003cb4 <stdio_out_chars_crlf>
10003ee2:	464b      	mov	r3, r9
10003ee4:	0020      	movs	r0, r4
10003ee6:	2201      	movs	r2, #1
10003ee8:	0029      	movs	r1, r5
10003eea:	702b      	strb	r3, [r5, #0]
10003eec:	f7ff fee2 	bl	10003cb4 <stdio_out_chars_crlf>
10003ef0:	6924      	ldr	r4, [r4, #16]
10003ef2:	2c00      	cmp	r4, #0
10003ef4:	d1e7      	bne.n	10003ec6 <__wrap_puts+0x5a>
10003ef6:	9b01      	ldr	r3, [sp, #4]
10003ef8:	2b00      	cmp	r3, #0
10003efa:	d118      	bne.n	10003f2e <__wrap_puts+0xc2>
10003efc:	4653      	mov	r3, sl
10003efe:	681c      	ldr	r4, [r3, #0]
10003f00:	2c00      	cmp	r4, #0
10003f02:	d006      	beq.n	10003f12 <__wrap_puts+0xa6>
10003f04:	6863      	ldr	r3, [r4, #4]
10003f06:	2b00      	cmp	r3, #0
10003f08:	d00b      	beq.n	10003f22 <__wrap_puts+0xb6>
10003f0a:	4798      	blx	r3
10003f0c:	6924      	ldr	r4, [r4, #16]
10003f0e:	2c00      	cmp	r4, #0
10003f10:	d1f8      	bne.n	10003f04 <__wrap_puts+0x98>
10003f12:	0030      	movs	r0, r6
10003f14:	b005      	add	sp, #20
10003f16:	bcf0      	pop	{r4, r5, r6, r7}
10003f18:	46bb      	mov	fp, r7
10003f1a:	46b2      	mov	sl, r6
10003f1c:	46a9      	mov	r9, r5
10003f1e:	46a0      	mov	r8, r4
10003f20:	bdf0      	pop	{r4, r5, r6, r7, pc}
10003f22:	6924      	ldr	r4, [r4, #16]
10003f24:	2c00      	cmp	r4, #0
10003f26:	d1ed      	bne.n	10003f04 <__wrap_puts+0x98>
10003f28:	e7f3      	b.n	10003f12 <__wrap_puts+0xa6>
10003f2a:	2800      	cmp	r0, #0
10003f2c:	d0f1      	beq.n	10003f12 <__wrap_puts+0xa6>
10003f2e:	4658      	mov	r0, fp
10003f30:	f000 fcca 	bl	100048c8 <__mutex_exit_veneer>
10003f34:	e7e2      	b.n	10003efc <__wrap_puts+0x90>
10003f36:	46c0      	nop			@ (mov r8, r8)
10003f38:	000f4240 	.word	0x000f4240
10003f3c:	7fffffff 	.word	0x7fffffff
10003f40:	20000248 	.word	0x20000248
10003f44:	2000050c 	.word	0x2000050c
10003f48:	20000510 	.word	0x20000510

10003f4c <stdio_set_driver_enabled>:
10003f4c:	4a0a      	ldr	r2, [pc, #40]	@ (10003f78 <stdio_set_driver_enabled+0x2c>)
10003f4e:	6813      	ldr	r3, [r2, #0]
10003f50:	2b00      	cmp	r3, #0
10003f52:	d105      	bne.n	10003f60 <stdio_set_driver_enabled+0x14>
10003f54:	e00c      	b.n	10003f70 <stdio_set_driver_enabled+0x24>
10003f56:	001a      	movs	r2, r3
10003f58:	691b      	ldr	r3, [r3, #16]
10003f5a:	3210      	adds	r2, #16
10003f5c:	2b00      	cmp	r3, #0
10003f5e:	d007      	beq.n	10003f70 <stdio_set_driver_enabled+0x24>
10003f60:	4298      	cmp	r0, r3
10003f62:	d1f8      	bne.n	10003f56 <stdio_set_driver_enabled+0xa>
10003f64:	2900      	cmp	r1, #0
10003f66:	d102      	bne.n	10003f6e <stdio_set_driver_enabled+0x22>
10003f68:	6903      	ldr	r3, [r0, #16]
10003f6a:	6013      	str	r3, [r2, #0]
10003f6c:	6101      	str	r1, [r0, #16]
10003f6e:	4770      	bx	lr
10003f70:	2900      	cmp	r1, #0
10003f72:	d0fc      	beq.n	10003f6e <stdio_set_driver_enabled+0x22>
10003f74:	6010      	str	r0, [r2, #0]
10003f76:	e7fa      	b.n	10003f6e <stdio_set_driver_enabled+0x22>
10003f78:	2000050c 	.word	0x2000050c

10003f7c <__wrap_vprintf>:
10003f7c:	b5f0      	push	{r4, r5, r6, r7, lr}
10003f7e:	46ce      	mov	lr, r9
10003f80:	4647      	mov	r7, r8
10003f82:	b580      	push	{r7, lr}
10003f84:	b0a3      	sub	sp, #140	@ 0x8c
10003f86:	0004      	movs	r4, r0
10003f88:	000d      	movs	r5, r1
10003f8a:	f7fd f8c9 	bl	10001120 <time_us_64>
10003f8e:	2300      	movs	r3, #0
10003f90:	4a29      	ldr	r2, [pc, #164]	@ (10004038 <__wrap_vprintf+0xbc>)
10003f92:	1812      	adds	r2, r2, r0
10003f94:	414b      	adcs	r3, r1
10003f96:	2180      	movs	r1, #128	@ 0x80
10003f98:	0609      	lsls	r1, r1, #24
10003f9a:	428b      	cmp	r3, r1
10003f9c:	d302      	bcc.n	10003fa4 <__wrap_vprintf+0x28>
10003f9e:	2201      	movs	r2, #1
10003fa0:	4b26      	ldr	r3, [pc, #152]	@ (1000403c <__wrap_vprintf+0xc0>)
10003fa2:	4252      	negs	r2, r2
10003fa4:	4f26      	ldr	r7, [pc, #152]	@ (10004040 <__wrap_vprintf+0xc4>)
10003fa6:	0038      	movs	r0, r7
10003fa8:	f000 fca6 	bl	100048f8 <__mutex_try_enter_block_until_veneer>
10003fac:	2300      	movs	r3, #0
10003fae:	0006      	movs	r6, r0
10003fb0:	9301      	str	r3, [sp, #4]
10003fb2:	0022      	movs	r2, r4
10003fb4:	002b      	movs	r3, r5
10003fb6:	4823      	ldr	r0, [pc, #140]	@ (10004044 <__wrap_vprintf+0xc8>)
10003fb8:	a901      	add	r1, sp, #4
10003fba:	f7ff f9cd 	bl	10003358 <vfctprintf>
10003fbe:	9b01      	ldr	r3, [sp, #4]
10003fc0:	4680      	mov	r8, r0
10003fc2:	2b00      	cmp	r3, #0
10003fc4:	d114      	bne.n	10003ff0 <__wrap_vprintf+0x74>
10003fc6:	4b20      	ldr	r3, [pc, #128]	@ (10004048 <__wrap_vprintf+0xcc>)
10003fc8:	681c      	ldr	r4, [r3, #0]
10003fca:	2c00      	cmp	r4, #0
10003fcc:	d006      	beq.n	10003fdc <__wrap_vprintf+0x60>
10003fce:	6863      	ldr	r3, [r4, #4]
10003fd0:	2b00      	cmp	r3, #0
10003fd2:	d00b      	beq.n	10003fec <__wrap_vprintf+0x70>
10003fd4:	4798      	blx	r3
10003fd6:	6924      	ldr	r4, [r4, #16]
10003fd8:	2c00      	cmp	r4, #0
10003fda:	d1f8      	bne.n	10003fce <__wrap_vprintf+0x52>
10003fdc:	2e00      	cmp	r6, #0
10003fde:	d125      	bne.n	1000402c <__wrap_vprintf+0xb0>
10003fe0:	4640      	mov	r0, r8
10003fe2:	b023      	add	sp, #140	@ 0x8c
10003fe4:	bcc0      	pop	{r6, r7}
10003fe6:	46b9      	mov	r9, r7
10003fe8:	46b0      	mov	r8, r6
10003fea:	bdf0      	pop	{r4, r5, r6, r7, pc}
10003fec:	6924      	ldr	r4, [r4, #16]
10003fee:	e7ec      	b.n	10003fca <__wrap_vprintf+0x4e>
10003ff0:	4b15      	ldr	r3, [pc, #84]	@ (10004048 <__wrap_vprintf+0xcc>)
10003ff2:	681d      	ldr	r5, [r3, #0]
10003ff4:	4699      	mov	r9, r3
10003ff6:	2d00      	cmp	r5, #0
10003ff8:	d01c      	beq.n	10004034 <__wrap_vprintf+0xb8>
10003ffa:	4c14      	ldr	r4, [pc, #80]	@ (1000404c <__wrap_vprintf+0xd0>)
10003ffc:	e002      	b.n	10004004 <__wrap_vprintf+0x88>
10003ffe:	692d      	ldr	r5, [r5, #16]
10004000:	2d00      	cmp	r5, #0
10004002:	d00f      	beq.n	10004024 <__wrap_vprintf+0xa8>
10004004:	682b      	ldr	r3, [r5, #0]
10004006:	2b00      	cmp	r3, #0
10004008:	d0f9      	beq.n	10003ffe <__wrap_vprintf+0x82>
1000400a:	6823      	ldr	r3, [r4, #0]
1000400c:	2b00      	cmp	r3, #0
1000400e:	d001      	beq.n	10004014 <__wrap_vprintf+0x98>
10004010:	42ab      	cmp	r3, r5
10004012:	d1f4      	bne.n	10003ffe <__wrap_vprintf+0x82>
10004014:	0028      	movs	r0, r5
10004016:	9a01      	ldr	r2, [sp, #4]
10004018:	a902      	add	r1, sp, #8
1000401a:	f7ff fe4b 	bl	10003cb4 <stdio_out_chars_crlf>
1000401e:	692d      	ldr	r5, [r5, #16]
10004020:	2d00      	cmp	r5, #0
10004022:	d1ef      	bne.n	10004004 <__wrap_vprintf+0x88>
10004024:	464b      	mov	r3, r9
10004026:	9501      	str	r5, [sp, #4]
10004028:	681c      	ldr	r4, [r3, #0]
1000402a:	e7ce      	b.n	10003fca <__wrap_vprintf+0x4e>
1000402c:	0038      	movs	r0, r7
1000402e:	f000 fc4b 	bl	100048c8 <__mutex_exit_veneer>
10004032:	e7d5      	b.n	10003fe0 <__wrap_vprintf+0x64>
10004034:	9501      	str	r5, [sp, #4]
10004036:	e7d1      	b.n	10003fdc <__wrap_vprintf+0x60>
10004038:	000f4240 	.word	0x000f4240
1000403c:	7fffffff 	.word	0x7fffffff
10004040:	20000248 	.word	0x20000248
10004044:	10003d71 	.word	0x10003d71
10004048:	2000050c 	.word	0x2000050c
1000404c:	20000510 	.word	0x20000510

10004050 <__wrap_printf>:
10004050:	b40f      	push	{r0, r1, r2, r3}
10004052:	b500      	push	{lr}
10004054:	b083      	sub	sp, #12
10004056:	a904      	add	r1, sp, #16
10004058:	c901      	ldmia	r1!, {r0}
1000405a:	9101      	str	r1, [sp, #4]
1000405c:	f7ff ff8e 	bl	10003f7c <__wrap_vprintf>
10004060:	b003      	add	sp, #12
10004062:	bc08      	pop	{r3}
10004064:	b004      	add	sp, #16
10004066:	4718      	bx	r3

10004068 <stdio_init_all>:
10004068:	b510      	push	{r4, lr}
1000406a:	f000 f8cf 	bl	1000420c <stdio_uart_init>
1000406e:	2001      	movs	r0, #1
10004070:	bd10      	pop	{r4, pc}
10004072:	46c0      	nop			@ (mov r8, r8)

10004074 <stdio_uart_out_chars>:
10004074:	b5f0      	push	{r4, r5, r6, r7, lr}
10004076:	2900      	cmp	r1, #0
10004078:	dd15      	ble.n	100040a6 <stdio_uart_out_chars+0x32>
1000407a:	4b0e      	ldr	r3, [pc, #56]	@ (100040b4 <stdio_uart_out_chars+0x40>)
1000407c:	270d      	movs	r7, #13
1000407e:	681a      	ldr	r2, [r3, #0]
10004080:	4b0d      	ldr	r3, [pc, #52]	@ (100040b8 <stdio_uart_out_chars+0x44>)
10004082:	4c0e      	ldr	r4, [pc, #56]	@ (100040bc <stdio_uart_out_chars+0x48>)
10004084:	18d3      	adds	r3, r2, r3
10004086:	425d      	negs	r5, r3
10004088:	416b      	adcs	r3, r5
1000408a:	1845      	adds	r5, r0, r1
1000408c:	2120      	movs	r1, #32
1000408e:	005b      	lsls	r3, r3, #1
10004090:	5f1e      	ldrsh	r6, [r3, r4]
10004092:	7804      	ldrb	r4, [r0, #0]
10004094:	42a6      	cmp	r6, r4
10004096:	d007      	beq.n	100040a8 <stdio_uart_out_chars+0x34>
10004098:	6993      	ldr	r3, [r2, #24]
1000409a:	4219      	tst	r1, r3
1000409c:	d1fc      	bne.n	10004098 <stdio_uart_out_chars+0x24>
1000409e:	3001      	adds	r0, #1
100040a0:	6014      	str	r4, [r2, #0]
100040a2:	42a8      	cmp	r0, r5
100040a4:	d1f5      	bne.n	10004092 <stdio_uart_out_chars+0x1e>
100040a6:	bdf0      	pop	{r4, r5, r6, r7, pc}
100040a8:	6993      	ldr	r3, [r2, #24]
100040aa:	4219      	tst	r1, r3
100040ac:	d1fc      	bne.n	100040a8 <stdio_uart_out_chars+0x34>
100040ae:	6017      	str	r7, [r2, #0]
100040b0:	e7f2      	b.n	10004098 <stdio_uart_out_chars+0x24>
100040b2:	46c0      	nop			@ (mov r8, r8)
100040b4:	20000644 	.word	0x20000644
100040b8:	bffc8000 	.word	0xbffc8000
100040bc:	20000640 	.word	0x20000640

100040c0 <stdio_uart_in_chars>:
100040c0:	b530      	push	{r4, r5, lr}
100040c2:	0004      	movs	r4, r0
100040c4:	1e0d      	subs	r5, r1, #0
100040c6:	dd30      	ble.n	1000412a <stdio_uart_in_chars+0x6a>
100040c8:	2000      	movs	r0, #0
100040ca:	2110      	movs	r1, #16
100040cc:	4b20      	ldr	r3, [pc, #128]	@ (10004150 <stdio_uart_in_chars+0x90>)
100040ce:	3c01      	subs	r4, #1
100040d0:	681a      	ldr	r2, [r3, #0]
100040d2:	6993      	ldr	r3, [r2, #24]
100040d4:	4219      	tst	r1, r3
100040d6:	d117      	bne.n	10004108 <stdio_uart_in_chars+0x48>
100040d8:	3001      	adds	r0, #1
100040da:	6993      	ldr	r3, [r2, #24]
100040dc:	4219      	tst	r1, r3
100040de:	d1fc      	bne.n	100040da <stdio_uart_in_chars+0x1a>
100040e0:	6813      	ldr	r3, [r2, #0]
100040e2:	5423      	strb	r3, [r4, r0]
100040e4:	4285      	cmp	r5, r0
100040e6:	d1f4      	bne.n	100040d2 <stdio_uart_in_chars+0x12>
100040e8:	4b1a      	ldr	r3, [pc, #104]	@ (10004154 <stdio_uart_in_chars+0x94>)
100040ea:	681b      	ldr	r3, [r3, #0]
100040ec:	2b00      	cmp	r3, #0
100040ee:	d009      	beq.n	10004104 <stdio_uart_in_chars+0x44>
100040f0:	2350      	movs	r3, #80	@ 0x50
100040f2:	2138      	movs	r1, #56	@ 0x38
100040f4:	6393      	str	r3, [r2, #56]	@ 0x38
100040f6:	6b53      	ldr	r3, [r2, #52]	@ 0x34
100040f8:	3234      	adds	r2, #52	@ 0x34
100040fa:	4019      	ands	r1, r3
100040fc:	2380      	movs	r3, #128	@ 0x80
100040fe:	015b      	lsls	r3, r3, #5
10004100:	4313      	orrs	r3, r2
10004102:	6019      	str	r1, [r3, #0]
10004104:	0028      	movs	r0, r5
10004106:	e00f      	b.n	10004128 <stdio_uart_in_chars+0x68>
10004108:	4b12      	ldr	r3, [pc, #72]	@ (10004154 <stdio_uart_in_chars+0x94>)
1000410a:	681b      	ldr	r3, [r3, #0]
1000410c:	2b00      	cmp	r3, #0
1000410e:	d009      	beq.n	10004124 <stdio_uart_in_chars+0x64>
10004110:	2350      	movs	r3, #80	@ 0x50
10004112:	2138      	movs	r1, #56	@ 0x38
10004114:	6393      	str	r3, [r2, #56]	@ 0x38
10004116:	6b53      	ldr	r3, [r2, #52]	@ 0x34
10004118:	3234      	adds	r2, #52	@ 0x34
1000411a:	4019      	ands	r1, r3
1000411c:	2380      	movs	r3, #128	@ 0x80
1000411e:	015b      	lsls	r3, r3, #5
10004120:	431a      	orrs	r2, r3
10004122:	6011      	str	r1, [r2, #0]
10004124:	2800      	cmp	r0, #0
10004126:	d010      	beq.n	1000414a <stdio_uart_in_chars+0x8a>
10004128:	bd30      	pop	{r4, r5, pc}
1000412a:	4b0a      	ldr	r3, [pc, #40]	@ (10004154 <stdio_uart_in_chars+0x94>)
1000412c:	681b      	ldr	r3, [r3, #0]
1000412e:	2b00      	cmp	r3, #0
10004130:	d00b      	beq.n	1000414a <stdio_uart_in_chars+0x8a>
10004132:	2250      	movs	r2, #80	@ 0x50
10004134:	2138      	movs	r1, #56	@ 0x38
10004136:	4b06      	ldr	r3, [pc, #24]	@ (10004150 <stdio_uart_in_chars+0x90>)
10004138:	681b      	ldr	r3, [r3, #0]
1000413a:	639a      	str	r2, [r3, #56]	@ 0x38
1000413c:	6b5a      	ldr	r2, [r3, #52]	@ 0x34
1000413e:	3334      	adds	r3, #52	@ 0x34
10004140:	4011      	ands	r1, r2
10004142:	2280      	movs	r2, #128	@ 0x80
10004144:	0152      	lsls	r2, r2, #5
10004146:	4313      	orrs	r3, r2
10004148:	6019      	str	r1, [r3, #0]
1000414a:	2003      	movs	r0, #3
1000414c:	4240      	negs	r0, r0
1000414e:	e7eb      	b.n	10004128 <stdio_uart_in_chars+0x68>
10004150:	20000644 	.word	0x20000644
10004154:	200004c4 	.word	0x200004c4

10004158 <on_uart_rx>:
10004158:	4b06      	ldr	r3, [pc, #24]	@ (10004174 <on_uart_rx+0x1c>)
1000415a:	b510      	push	{r4, lr}
1000415c:	681b      	ldr	r3, [r3, #0]
1000415e:	2b00      	cmp	r3, #0
10004160:	d006      	beq.n	10004170 <on_uart_rx+0x18>
10004162:	2100      	movs	r1, #0
10004164:	4a04      	ldr	r2, [pc, #16]	@ (10004178 <on_uart_rx+0x20>)
10004166:	6812      	ldr	r2, [r2, #0]
10004168:	6391      	str	r1, [r2, #56]	@ 0x38
1000416a:	4a04      	ldr	r2, [pc, #16]	@ (1000417c <on_uart_rx+0x24>)
1000416c:	6810      	ldr	r0, [r2, #0]
1000416e:	4798      	blx	r3
10004170:	bd10      	pop	{r4, pc}
10004172:	46c0      	nop			@ (mov r8, r8)
10004174:	200004c4 	.word	0x200004c4
10004178:	20000644 	.word	0x20000644
1000417c:	200004c8 	.word	0x200004c8

10004180 <stdio_uart_set_chars_available_callback>:
10004180:	4b1d      	ldr	r3, [pc, #116]	@ (100041f8 <stdio_uart_set_chars_available_callback+0x78>)
10004182:	b5f0      	push	{r4, r5, r6, r7, lr}
10004184:	681a      	ldr	r2, [r3, #0]
10004186:	46c6      	mov	lr, r8
10004188:	4698      	mov	r8, r3
1000418a:	4b1c      	ldr	r3, [pc, #112]	@ (100041fc <stdio_uart_set_chars_available_callback+0x7c>)
1000418c:	000e      	movs	r6, r1
1000418e:	18d3      	adds	r3, r2, r3
10004190:	4259      	negs	r1, r3
10004192:	414b      	adcs	r3, r1
10004194:	4f1a      	ldr	r7, [pc, #104]	@ (10004200 <stdio_uart_set_chars_available_callback+0x80>)
10004196:	3314      	adds	r3, #20
10004198:	001c      	movs	r4, r3
1000419a:	0005      	movs	r5, r0
1000419c:	b500      	push	{lr}
1000419e:	683b      	ldr	r3, [r7, #0]
100041a0:	2800      	cmp	r0, #0
100041a2:	d007      	beq.n	100041b4 <stdio_uart_set_chars_available_callback+0x34>
100041a4:	2b00      	cmp	r3, #0
100041a6:	d011      	beq.n	100041cc <stdio_uart_set_chars_available_callback+0x4c>
100041a8:	4b16      	ldr	r3, [pc, #88]	@ (10004204 <stdio_uart_set_chars_available_callback+0x84>)
100041aa:	603d      	str	r5, [r7, #0]
100041ac:	601e      	str	r6, [r3, #0]
100041ae:	bc80      	pop	{r7}
100041b0:	46b8      	mov	r8, r7
100041b2:	bdf0      	pop	{r4, r5, r6, r7, pc}
100041b4:	2b00      	cmp	r3, #0
100041b6:	d0f7      	beq.n	100041a8 <stdio_uart_set_chars_available_callback+0x28>
100041b8:	6390      	str	r0, [r2, #56]	@ 0x38
100041ba:	2100      	movs	r1, #0
100041bc:	0020      	movs	r0, r4
100041be:	f7fc fa0f 	bl	100005e0 <irq_set_enabled>
100041c2:	0020      	movs	r0, r4
100041c4:	4910      	ldr	r1, [pc, #64]	@ (10004208 <stdio_uart_set_chars_available_callback+0x88>)
100041c6:	f7fc fa4f 	bl	10000668 <irq_remove_handler>
100041ca:	e7ed      	b.n	100041a8 <stdio_uart_set_chars_available_callback+0x28>
100041cc:	0020      	movs	r0, r4
100041ce:	490e      	ldr	r1, [pc, #56]	@ (10004208 <stdio_uart_set_chars_available_callback+0x88>)
100041d0:	f7fc fa20 	bl	10000614 <irq_set_exclusive_handler>
100041d4:	2101      	movs	r1, #1
100041d6:	0020      	movs	r0, r4
100041d8:	f7fc fa02 	bl	100005e0 <irq_set_enabled>
100041dc:	4643      	mov	r3, r8
100041de:	2250      	movs	r2, #80	@ 0x50
100041e0:	2138      	movs	r1, #56	@ 0x38
100041e2:	681b      	ldr	r3, [r3, #0]
100041e4:	639a      	str	r2, [r3, #56]	@ 0x38
100041e6:	6b5a      	ldr	r2, [r3, #52]	@ 0x34
100041e8:	3334      	adds	r3, #52	@ 0x34
100041ea:	4011      	ands	r1, r2
100041ec:	2280      	movs	r2, #128	@ 0x80
100041ee:	0152      	lsls	r2, r2, #5
100041f0:	4313      	orrs	r3, r2
100041f2:	6019      	str	r1, [r3, #0]
100041f4:	e7d8      	b.n	100041a8 <stdio_uart_set_chars_available_callback+0x28>
100041f6:	46c0      	nop			@ (mov r8, r8)
100041f8:	20000644 	.word	0x20000644
100041fc:	bffc8000 	.word	0xbffc8000
10004200:	200004c4 	.word	0x200004c4
10004204:	200004c8 	.word	0x200004c8
10004208:	10004159 	.word	0x10004159

1000420c <stdio_uart_init>:
1000420c:	4b0c      	ldr	r3, [pc, #48]	@ (10004240 <stdio_uart_init+0x34>)
1000420e:	b510      	push	{r4, lr}
10004210:	781b      	ldrb	r3, [r3, #0]
10004212:	4b0c      	ldr	r3, [pc, #48]	@ (10004244 <stdio_uart_init+0x38>)
10004214:	4c0c      	ldr	r4, [pc, #48]	@ (10004248 <stdio_uart_init+0x3c>)
10004216:	781b      	ldrb	r3, [r3, #0]
10004218:	4b0c      	ldr	r3, [pc, #48]	@ (1000424c <stdio_uart_init+0x40>)
1000421a:	2102      	movs	r1, #2
1000421c:	2000      	movs	r0, #0
1000421e:	6023      	str	r3, [r4, #0]
10004220:	f7fc f90c 	bl	1000043c <gpio_set_function>
10004224:	2102      	movs	r1, #2
10004226:	2001      	movs	r0, #1
10004228:	f7fc f908 	bl	1000043c <gpio_set_function>
1000422c:	21e1      	movs	r1, #225	@ 0xe1
1000422e:	6820      	ldr	r0, [r4, #0]
10004230:	0249      	lsls	r1, r1, #9
10004232:	f7fd fa69 	bl	10001708 <uart_init>
10004236:	2101      	movs	r1, #1
10004238:	4805      	ldr	r0, [pc, #20]	@ (10004250 <stdio_uart_init+0x44>)
1000423a:	f7ff fe87 	bl	10003f4c <stdio_set_driver_enabled>
1000423e:	bd10      	pop	{r4, pc}
10004240:	10004d7c 	.word	0x10004d7c
10004244:	10004d78 	.word	0x10004d78
10004248:	20000644 	.word	0x20000644
1000424c:	40034000 	.word	0x40034000
10004250:	20000230 	.word	0x20000230

10004254 <pio_claim_unused_sm>:
10004254:	4b0b      	ldr	r3, [pc, #44]	@ (10004284 <pio_claim_unused_sm+0x30>)
10004256:	b510      	push	{r4, lr}
10004258:	469c      	mov	ip, r3
1000425a:	4460      	add	r0, ip
1000425c:	4243      	negs	r3, r0
1000425e:	4158      	adcs	r0, r3
10004260:	4a09      	ldr	r2, [pc, #36]	@ (10004288 <pio_claim_unused_sm+0x34>)
10004262:	0084      	lsls	r4, r0, #2
10004264:	b082      	sub	sp, #8
10004266:	9200      	str	r2, [sp, #0]
10004268:	4808      	ldr	r0, [pc, #32]	@ (1000428c <pio_claim_unused_sm+0x38>)
1000426a:	0022      	movs	r2, r4
1000426c:	1ce3      	adds	r3, r4, #3
1000426e:	f7fc f94f 	bl	10000510 <hw_claim_unused_from_range>
10004272:	4284      	cmp	r4, r0
10004274:	dc02      	bgt.n	1000427c <pio_claim_unused_sm+0x28>
10004276:	1b00      	subs	r0, r0, r4
10004278:	b002      	add	sp, #8
1000427a:	bd10      	pop	{r4, pc}
1000427c:	2001      	movs	r0, #1
1000427e:	4240      	negs	r0, r0
10004280:	e7fa      	b.n	10004278 <pio_claim_unused_sm+0x24>
10004282:	46c0      	nop			@ (mov r8, r8)
10004284:	afd00000 	.word	0xafd00000
10004288:	10004cd0 	.word	0x10004cd0
1000428c:	20000649 	.word	0x20000649

10004290 <pio_can_add_program>:
10004290:	b570      	push	{r4, r5, r6, lr}
10004292:	000e      	movs	r6, r1
10004294:	0004      	movs	r4, r0
10004296:	f7fc f903 	bl	100004a0 <hw_claim_lock>
1000429a:	4a15      	ldr	r2, [pc, #84]	@ (100042f0 <pio_can_add_program+0x60>)
1000429c:	4b15      	ldr	r3, [pc, #84]	@ (100042f4 <pio_can_add_program+0x64>)
1000429e:	4694      	mov	ip, r2
100042a0:	4464      	add	r4, ip
100042a2:	4262      	negs	r2, r4
100042a4:	4154      	adcs	r4, r2
100042a6:	2201      	movs	r2, #1
100042a8:	00a4      	lsls	r4, r4, #2
100042aa:	58e5      	ldr	r5, [r4, r3]
100042ac:	2105      	movs	r1, #5
100042ae:	7934      	ldrb	r4, [r6, #4]
100042b0:	2320      	movs	r3, #32
100042b2:	40a2      	lsls	r2, r4
100042b4:	5671      	ldrsb	r1, [r6, r1]
100042b6:	3a01      	subs	r2, #1
100042b8:	1b1b      	subs	r3, r3, r4
100042ba:	2900      	cmp	r1, #0
100042bc:	db0b      	blt.n	100042d6 <pio_can_add_program+0x46>
100042be:	4299      	cmp	r1, r3
100042c0:	dc14      	bgt.n	100042ec <pio_can_add_program+0x5c>
100042c2:	408a      	lsls	r2, r1
100042c4:	0014      	movs	r4, r2
100042c6:	402c      	ands	r4, r5
100042c8:	4263      	negs	r3, r4
100042ca:	415c      	adcs	r4, r3
100042cc:	b2e4      	uxtb	r4, r4
100042ce:	f7fc f8f3 	bl	100004b8 <hw_claim_unlock>
100042d2:	0020      	movs	r0, r4
100042d4:	bd70      	pop	{r4, r5, r6, pc}
100042d6:	2b00      	cmp	r3, #0
100042d8:	da02      	bge.n	100042e0 <pio_can_add_program+0x50>
100042da:	e007      	b.n	100042ec <pio_can_add_program+0x5c>
100042dc:	3b01      	subs	r3, #1
100042de:	d305      	bcc.n	100042ec <pio_can_add_program+0x5c>
100042e0:	0011      	movs	r1, r2
100042e2:	4099      	lsls	r1, r3
100042e4:	420d      	tst	r5, r1
100042e6:	d1f9      	bne.n	100042dc <pio_can_add_program+0x4c>
100042e8:	2401      	movs	r4, #1
100042ea:	e7f0      	b.n	100042ce <pio_can_add_program+0x3e>
100042ec:	2400      	movs	r4, #0
100042ee:	e7ee      	b.n	100042ce <pio_can_add_program+0x3e>
100042f0:	afd00000 	.word	0xafd00000
100042f4:	200004ac 	.word	0x200004ac

100042f8 <pio_add_program>:
100042f8:	b5f0      	push	{r4, r5, r6, r7, lr}
100042fa:	46de      	mov	lr, fp
100042fc:	4657      	mov	r7, sl
100042fe:	464e      	mov	r6, r9
10004300:	4645      	mov	r5, r8
10004302:	4688      	mov	r8, r1
10004304:	b5e0      	push	{r5, r6, r7, lr}
10004306:	b083      	sub	sp, #12
10004308:	0006      	movs	r6, r0
1000430a:	2405      	movs	r4, #5
1000430c:	f7fc f8c8 	bl	100004a0 <hw_claim_lock>
10004310:	4643      	mov	r3, r8
10004312:	791f      	ldrb	r7, [r3, #4]
10004314:	571c      	ldrsb	r4, [r3, r4]
10004316:	4b31      	ldr	r3, [pc, #196]	@ (100043dc <pio_add_program+0xe4>)
10004318:	4682      	mov	sl, r0
1000431a:	18f3      	adds	r3, r6, r3
1000431c:	425a      	negs	r2, r3
1000431e:	4153      	adcs	r3, r2
10004320:	009b      	lsls	r3, r3, #2
10004322:	469c      	mov	ip, r3
10004324:	4a2e      	ldr	r2, [pc, #184]	@ (100043e0 <pio_add_program+0xe8>)
10004326:	0013      	movs	r3, r2
10004328:	4693      	mov	fp, r2
1000432a:	4662      	mov	r2, ip
1000432c:	589b      	ldr	r3, [r3, r2]
1000432e:	2201      	movs	r2, #1
10004330:	4699      	mov	r9, r3
10004332:	40ba      	lsls	r2, r7
10004334:	2320      	movs	r3, #32
10004336:	3a01      	subs	r2, #1
10004338:	1bdb      	subs	r3, r3, r7
1000433a:	2c00      	cmp	r4, #0
1000433c:	db36      	blt.n	100043ac <pio_add_program+0xb4>
1000433e:	429c      	cmp	r4, r3
10004340:	dc46      	bgt.n	100043d0 <pio_add_program+0xd8>
10004342:	40a2      	lsls	r2, r4
10004344:	464b      	mov	r3, r9
10004346:	4213      	tst	r3, r2
10004348:	d142      	bne.n	100043d0 <pio_add_program+0xd8>
1000434a:	9201      	str	r2, [sp, #4]
1000434c:	2f00      	cmp	r7, #0
1000434e:	d01c      	beq.n	1000438a <pio_add_program+0x92>
10004350:	4642      	mov	r2, r8
10004352:	4643      	mov	r3, r8
10004354:	7852      	ldrb	r2, [r2, #1]
10004356:	781b      	ldrb	r3, [r3, #0]
10004358:	0212      	lsls	r2, r2, #8
1000435a:	431a      	orrs	r2, r3
1000435c:	4643      	mov	r3, r8
1000435e:	789b      	ldrb	r3, [r3, #2]
10004360:	2580      	movs	r5, #128	@ 0x80
10004362:	041b      	lsls	r3, r3, #16
10004364:	4313      	orrs	r3, r2
10004366:	4642      	mov	r2, r8
10004368:	78d0      	ldrb	r0, [r2, #3]
1000436a:	2200      	movs	r2, #0
1000436c:	0600      	lsls	r0, r0, #24
1000436e:	4318      	orrs	r0, r3
10004370:	01ad      	lsls	r5, r5, #6
10004372:	0053      	lsls	r3, r2, #1
10004374:	5ac1      	ldrh	r1, [r0, r3]
10004376:	42a9      	cmp	r1, r5
10004378:	d200      	bcs.n	1000437c <pio_add_program+0x84>
1000437a:	1909      	adds	r1, r1, r4
1000437c:	18a3      	adds	r3, r4, r2
1000437e:	3312      	adds	r3, #18
10004380:	009b      	lsls	r3, r3, #2
10004382:	3201      	adds	r2, #1
10004384:	5199      	str	r1, [r3, r6]
10004386:	42ba      	cmp	r2, r7
10004388:	d3f3      	bcc.n	10004372 <pio_add_program+0x7a>
1000438a:	464d      	mov	r5, r9
1000438c:	9b01      	ldr	r3, [sp, #4]
1000438e:	4662      	mov	r2, ip
10004390:	431d      	orrs	r5, r3
10004392:	465b      	mov	r3, fp
10004394:	4650      	mov	r0, sl
10004396:	509d      	str	r5, [r3, r2]
10004398:	f7fc f88e 	bl	100004b8 <hw_claim_unlock>
1000439c:	0020      	movs	r0, r4
1000439e:	b003      	add	sp, #12
100043a0:	bcf0      	pop	{r4, r5, r6, r7}
100043a2:	46bb      	mov	fp, r7
100043a4:	46b2      	mov	sl, r6
100043a6:	46a9      	mov	r9, r5
100043a8:	46a0      	mov	r8, r4
100043aa:	bdf0      	pop	{r4, r5, r6, r7, pc}
100043ac:	2b00      	cmp	r3, #0
100043ae:	db0f      	blt.n	100043d0 <pio_add_program+0xd8>
100043b0:	0011      	movs	r1, r2
100043b2:	4648      	mov	r0, r9
100043b4:	4099      	lsls	r1, r3
100043b6:	001c      	movs	r4, r3
100043b8:	9101      	str	r1, [sp, #4]
100043ba:	4201      	tst	r1, r0
100043bc:	d106      	bne.n	100043cc <pio_add_program+0xd4>
100043be:	e7c5      	b.n	1000434c <pio_add_program+0x54>
100043c0:	0015      	movs	r5, r2
100043c2:	4649      	mov	r1, r9
100043c4:	409d      	lsls	r5, r3
100043c6:	001c      	movs	r4, r3
100043c8:	4229      	tst	r1, r5
100043ca:	d004      	beq.n	100043d6 <pio_add_program+0xde>
100043cc:	3b01      	subs	r3, #1
100043ce:	d2f7      	bcs.n	100043c0 <pio_add_program+0xc8>
100043d0:	4804      	ldr	r0, [pc, #16]	@ (100043e4 <pio_add_program+0xec>)
100043d2:	f7fd fcb1 	bl	10001d38 <panic>
100043d6:	9501      	str	r5, [sp, #4]
100043d8:	e7b8      	b.n	1000434c <pio_add_program+0x54>
100043da:	46c0      	nop			@ (mov r8, r8)
100043dc:	afd00000 	.word	0xafd00000
100043e0:	200004ac 	.word	0x200004ac
100043e4:	10004cf4 	.word	0x10004cf4

100043e8 <pio_sm_set_consecutive_pindirs>:
100043e8:	b5f0      	push	{r4, r5, r6, r7, lr}
100043ea:	4657      	mov	r7, sl
100043ec:	464e      	mov	r6, r9
100043ee:	4645      	mov	r5, r8
100043f0:	46de      	mov	lr, fp
100043f2:	4689      	mov	r9, r1
100043f4:	b5e0      	push	{r5, r6, r7, lr}
100043f6:	b083      	sub	sp, #12
100043f8:	a90c      	add	r1, sp, #48	@ 0x30
100043fa:	780d      	ldrb	r5, [r1, #0]
100043fc:	4649      	mov	r1, r9
100043fe:	0049      	lsls	r1, r1, #1
10004400:	4688      	mov	r8, r1
10004402:	4449      	add	r1, r9
10004404:	00c9      	lsls	r1, r1, #3
10004406:	1846      	adds	r6, r0, r1
10004408:	0037      	movs	r7, r6
1000440a:	0034      	movs	r4, r6
1000440c:	37dc      	adds	r7, #220	@ 0xdc
1000440e:	4684      	mov	ip, r0
10004410:	6838      	ldr	r0, [r7, #0]
10004412:	34cc      	adds	r4, #204	@ 0xcc
10004414:	4683      	mov	fp, r0
10004416:	6820      	ldr	r0, [r4, #0]
10004418:	24c0      	movs	r4, #192	@ 0xc0
1000441a:	31cc      	adds	r1, #204	@ 0xcc
1000441c:	01a4      	lsls	r4, r4, #6
1000441e:	4461      	add	r1, ip
10004420:	4321      	orrs	r1, r4
10004422:	2480      	movs	r4, #128	@ 0x80
10004424:	02a4      	lsls	r4, r4, #10
10004426:	600c      	str	r4, [r1, #0]
10004428:	4269      	negs	r1, r5
1000442a:	414d      	adcs	r5, r1
1000442c:	211e      	movs	r1, #30
1000442e:	426d      	negs	r5, r5
10004430:	438d      	bics	r5, r1
10004432:	4916      	ldr	r1, [pc, #88]	@ (1000448c <pio_sm_set_consecutive_pindirs+0xa4>)
10004434:	9001      	str	r0, [sp, #4]
10004436:	468a      	mov	sl, r1
10004438:	4455      	add	r5, sl
1000443a:	2b05      	cmp	r3, #5
1000443c:	d90c      	bls.n	10004458 <pio_sm_set_consecutive_pindirs+0x70>
1000443e:	20a0      	movs	r0, #160	@ 0xa0
10004440:	211f      	movs	r1, #31
10004442:	0540      	lsls	r0, r0, #21
10004444:	36d8      	adds	r6, #216	@ 0xd8
10004446:	0154      	lsls	r4, r2, #5
10004448:	4304      	orrs	r4, r0
1000444a:	3205      	adds	r2, #5
1000444c:	3b05      	subs	r3, #5
1000444e:	603c      	str	r4, [r7, #0]
10004450:	400a      	ands	r2, r1
10004452:	6035      	str	r5, [r6, #0]
10004454:	2b05      	cmp	r3, #5
10004456:	d8f6      	bhi.n	10004446 <pio_sm_set_consecutive_pindirs+0x5e>
10004458:	0152      	lsls	r2, r2, #5
1000445a:	069b      	lsls	r3, r3, #26
1000445c:	4313      	orrs	r3, r2
1000445e:	4642      	mov	r2, r8
10004460:	444a      	add	r2, r9
10004462:	00d2      	lsls	r2, r2, #3
10004464:	4462      	add	r2, ip
10004466:	0010      	movs	r0, r2
10004468:	32dc      	adds	r2, #220	@ 0xdc
1000446a:	6013      	str	r3, [r2, #0]
1000446c:	0003      	movs	r3, r0
1000446e:	33d8      	adds	r3, #216	@ 0xd8
10004470:	601d      	str	r5, [r3, #0]
10004472:	465b      	mov	r3, fp
10004474:	6013      	str	r3, [r2, #0]
10004476:	9b01      	ldr	r3, [sp, #4]
10004478:	30cc      	adds	r0, #204	@ 0xcc
1000447a:	6003      	str	r3, [r0, #0]
1000447c:	b003      	add	sp, #12
1000447e:	bcf0      	pop	{r4, r5, r6, r7}
10004480:	46bb      	mov	fp, r7
10004482:	46b2      	mov	sl, r6
10004484:	46a9      	mov	r9, r5
10004486:	46a0      	mov	r8, r4
10004488:	bdf0      	pop	{r4, r5, r6, r7, pc}
1000448a:	46c0      	nop			@ (mov r8, r8)
1000448c:	0000e09f 	.word	0x0000e09f

10004490 <pio_sm_init>:
10004490:	b5f0      	push	{r4, r5, r6, r7, lr}
10004492:	2501      	movs	r5, #1
10004494:	408d      	lsls	r5, r1
10004496:	6804      	ldr	r4, [r0, #0]
10004498:	43ac      	bics	r4, r5
1000449a:	6004      	str	r4, [r0, #0]
1000449c:	2b00      	cmp	r3, #0
1000449e:	d02e      	beq.n	100044fe <pio_sm_init+0x6e>
100044a0:	004d      	lsls	r5, r1, #1
100044a2:	186c      	adds	r4, r5, r1
100044a4:	00e4      	lsls	r4, r4, #3
100044a6:	1904      	adds	r4, r0, r4
100044a8:	0026      	movs	r6, r4
100044aa:	681f      	ldr	r7, [r3, #0]
100044ac:	36c8      	adds	r6, #200	@ 0xc8
100044ae:	6037      	str	r7, [r6, #0]
100044b0:	685f      	ldr	r7, [r3, #4]
100044b2:	34dc      	adds	r4, #220	@ 0xdc
100044b4:	6077      	str	r7, [r6, #4]
100044b6:	689f      	ldr	r7, [r3, #8]
100044b8:	68db      	ldr	r3, [r3, #12]
100044ba:	60b7      	str	r7, [r6, #8]
100044bc:	6023      	str	r3, [r4, #0]
100044be:	186b      	adds	r3, r5, r1
100044c0:	00db      	lsls	r3, r3, #3
100044c2:	001d      	movs	r5, r3
100044c4:	2480      	movs	r4, #128	@ 0x80
100044c6:	35d0      	adds	r5, #208	@ 0xd0
100044c8:	1945      	adds	r5, r0, r5
100044ca:	0164      	lsls	r4, r4, #5
100044cc:	432c      	orrs	r4, r5
100044ce:	2580      	movs	r5, #128	@ 0x80
100044d0:	062d      	lsls	r5, r5, #24
100044d2:	6025      	str	r5, [r4, #0]
100044d4:	6025      	str	r5, [r4, #0]
100044d6:	2501      	movs	r5, #1
100044d8:	4c12      	ldr	r4, [pc, #72]	@ (10004524 <pio_sm_init+0x94>)
100044da:	002e      	movs	r6, r5
100044dc:	408c      	lsls	r4, r1
100044de:	6084      	str	r4, [r0, #8]
100044e0:	1d0c      	adds	r4, r1, #4
100044e2:	40a6      	lsls	r6, r4
100044e4:	2480      	movs	r4, #128	@ 0x80
100044e6:	3108      	adds	r1, #8
100044e8:	408d      	lsls	r5, r1
100044ea:	211f      	movs	r1, #31
100044ec:	01a4      	lsls	r4, r4, #6
100044ee:	4304      	orrs	r4, r0
100044f0:	18c0      	adds	r0, r0, r3
100044f2:	400a      	ands	r2, r1
100044f4:	30d8      	adds	r0, #216	@ 0xd8
100044f6:	6026      	str	r6, [r4, #0]
100044f8:	6025      	str	r5, [r4, #0]
100044fa:	6002      	str	r2, [r0, #0]
100044fc:	bdf0      	pop	{r4, r5, r6, r7, pc}
100044fe:	004d      	lsls	r5, r1, #1
10004500:	186c      	adds	r4, r5, r1
10004502:	00e4      	lsls	r4, r4, #3
10004504:	1904      	adds	r4, r0, r4
10004506:	0026      	movs	r6, r4
10004508:	2780      	movs	r7, #128	@ 0x80
1000450a:	36c8      	adds	r6, #200	@ 0xc8
1000450c:	027f      	lsls	r7, r7, #9
1000450e:	6037      	str	r7, [r6, #0]
10004510:	27f8      	movs	r7, #248	@ 0xf8
10004512:	027f      	lsls	r7, r7, #9
10004514:	6077      	str	r7, [r6, #4]
10004516:	27c0      	movs	r7, #192	@ 0xc0
10004518:	34dc      	adds	r4, #220	@ 0xdc
1000451a:	033f      	lsls	r7, r7, #12
1000451c:	60b7      	str	r7, [r6, #8]
1000451e:	6023      	str	r3, [r4, #0]
10004520:	e7cd      	b.n	100044be <pio_sm_init+0x2e>
10004522:	46c0      	nop			@ (mov r8, r8)
10004524:	01010101 	.word	0x01010101

10004528 <nec_tx_init>:
10004528:	b5f0      	push	{r4, r5, r6, r7, lr}
1000452a:	46c6      	mov	lr, r8
1000452c:	b500      	push	{lr}
1000452e:	4e6b      	ldr	r6, [pc, #428]	@ (100046dc <nec_tx_init+0x1b4>)
10004530:	000d      	movs	r5, r1
10004532:	b08a      	sub	sp, #40	@ 0x28
10004534:	0031      	movs	r1, r6
10004536:	0004      	movs	r4, r0
10004538:	f7ff feaa 	bl	10004290 <pio_can_add_program>
1000453c:	2800      	cmp	r0, #0
1000453e:	d100      	bne.n	10004542 <nec_tx_init+0x1a>
10004540:	e0c9      	b.n	100046d6 <nec_tx_init+0x1ae>
10004542:	0031      	movs	r1, r6
10004544:	0020      	movs	r0, r4
10004546:	f7ff fed7 	bl	100042f8 <pio_add_program>
1000454a:	2101      	movs	r1, #1
1000454c:	0007      	movs	r7, r0
1000454e:	0020      	movs	r0, r4
10004550:	f7ff fe80 	bl	10004254 <pio_claim_unused_sm>
10004554:	0006      	movs	r6, r0
10004556:	1c43      	adds	r3, r0, #1
10004558:	d100      	bne.n	1000455c <nec_tx_init+0x34>
1000455a:	e0bc      	b.n	100046d6 <nec_tx_init+0x1ae>
1000455c:	2300      	movs	r3, #0
1000455e:	2280      	movs	r2, #128	@ 0x80
10004560:	9305      	str	r3, [sp, #20]
10004562:	23f8      	movs	r3, #248	@ 0xf8
10004564:	0252      	lsls	r2, r2, #9
10004566:	025b      	lsls	r3, r3, #9
10004568:	9202      	str	r2, [sp, #8]
1000456a:	9303      	str	r3, [sp, #12]
1000456c:	23c0      	movs	r3, #192	@ 0xc0
1000456e:	2210      	movs	r2, #16
10004570:	031b      	lsls	r3, r3, #12
10004572:	a902      	add	r1, sp, #8
10004574:	a806      	add	r0, sp, #24
10004576:	9304      	str	r3, [sp, #16]
10004578:	f7ff fb96 	bl	10003ca8 <__wrap___aeabi_memcpy>
1000457c:	1d3b      	adds	r3, r7, #4
1000457e:	01fa      	lsls	r2, r7, #7
10004580:	031b      	lsls	r3, r3, #12
10004582:	4313      	orrs	r3, r2
10004584:	a906      	add	r1, sp, #24
10004586:	2210      	movs	r2, #16
10004588:	a802      	add	r0, sp, #8
1000458a:	9307      	str	r3, [sp, #28]
1000458c:	f7ff fb8c 	bl	10003ca8 <__wrap___aeabi_memcpy>
10004590:	2380      	movs	r3, #128	@ 0x80
10004592:	016a      	lsls	r2, r5, #5
10004594:	04db      	lsls	r3, r3, #19
10004596:	4313      	orrs	r3, r2
10004598:	9305      	str	r3, [sp, #20]
1000459a:	4b51      	ldr	r3, [pc, #324]	@ (100046e0 <nec_tx_init+0x1b8>)
1000459c:	0028      	movs	r0, r5
1000459e:	18e1      	adds	r1, r4, r3
100045a0:	1e4b      	subs	r3, r1, #1
100045a2:	4199      	sbcs	r1, r3
100045a4:	3106      	adds	r1, #6
100045a6:	f7fb ff49 	bl	1000043c <gpio_set_function>
100045aa:	2301      	movs	r3, #1
100045ac:	002a      	movs	r2, r5
100045ae:	9300      	str	r3, [sp, #0]
100045b0:	0031      	movs	r1, r6
100045b2:	0020      	movs	r0, r4
100045b4:	f7ff ff18 	bl	100043e8 <pio_sm_set_consecutive_pindirs>
100045b8:	2005      	movs	r0, #5
100045ba:	f7fd facd 	bl	10001b58 <clock_get_hz>
100045be:	f7ff fb09 	bl	10003bd4 <__wrap___aeabi_ui2f>
100045c2:	4948      	ldr	r1, [pc, #288]	@ (100046e4 <nec_tx_init+0x1bc>)
100045c4:	f7ff faeb 	bl	10003b9e <__wrap___aeabi_fdiv>
100045c8:	4680      	mov	r8, r0
100045ca:	f7ff fb2b 	bl	10003c24 <__wrap___aeabi_f2uiz>
100045ce:	b285      	uxth	r5, r0
100045d0:	2300      	movs	r3, #0
100045d2:	2d00      	cmp	r5, #0
100045d4:	d15f      	bne.n	10004696 <nec_tx_init+0x16e>
100045d6:	042d      	lsls	r5, r5, #16
100045d8:	431d      	orrs	r5, r3
100045da:	003a      	movs	r2, r7
100045dc:	0031      	movs	r1, r6
100045de:	0020      	movs	r0, r4
100045e0:	ab02      	add	r3, sp, #8
100045e2:	9502      	str	r5, [sp, #8]
100045e4:	f7ff ff54 	bl	10004490 <pio_sm_init>
100045e8:	2301      	movs	r3, #1
100045ea:	40b3      	lsls	r3, r6
100045ec:	6822      	ldr	r2, [r4, #0]
100045ee:	4d3e      	ldr	r5, [pc, #248]	@ (100046e8 <nec_tx_init+0x1c0>)
100045f0:	4313      	orrs	r3, r2
100045f2:	0029      	movs	r1, r5
100045f4:	0020      	movs	r0, r4
100045f6:	6023      	str	r3, [r4, #0]
100045f8:	f7ff fe4a 	bl	10004290 <pio_can_add_program>
100045fc:	2800      	cmp	r0, #0
100045fe:	d06a      	beq.n	100046d6 <nec_tx_init+0x1ae>
10004600:	0029      	movs	r1, r5
10004602:	0020      	movs	r0, r4
10004604:	f7ff fe78 	bl	100042f8 <pio_add_program>
10004608:	2101      	movs	r1, #1
1000460a:	0007      	movs	r7, r0
1000460c:	0020      	movs	r0, r4
1000460e:	f7ff fe21 	bl	10004254 <pio_claim_unused_sm>
10004612:	0006      	movs	r6, r0
10004614:	1c43      	adds	r3, r0, #1
10004616:	d05e      	beq.n	100046d6 <nec_tx_init+0x1ae>
10004618:	2300      	movs	r3, #0
1000461a:	2280      	movs	r2, #128	@ 0x80
1000461c:	9305      	str	r3, [sp, #20]
1000461e:	23f8      	movs	r3, #248	@ 0xf8
10004620:	0252      	lsls	r2, r2, #9
10004622:	025b      	lsls	r3, r3, #9
10004624:	9202      	str	r2, [sp, #8]
10004626:	9303      	str	r3, [sp, #12]
10004628:	23c0      	movs	r3, #192	@ 0xc0
1000462a:	2210      	movs	r2, #16
1000462c:	031b      	lsls	r3, r3, #12
1000462e:	a902      	add	r1, sp, #8
10004630:	a806      	add	r0, sp, #24
10004632:	9304      	str	r3, [sp, #16]
10004634:	f7ff fb38 	bl	10003ca8 <__wrap___aeabi_memcpy>
10004638:	003b      	movs	r3, r7
1000463a:	330a      	adds	r3, #10
1000463c:	01fa      	lsls	r2, r7, #7
1000463e:	031b      	lsls	r3, r3, #12
10004640:	4313      	orrs	r3, r2
10004642:	a906      	add	r1, sp, #24
10004644:	2210      	movs	r2, #16
10004646:	a802      	add	r0, sp, #8
10004648:	9307      	str	r3, [sp, #28]
1000464a:	f7ff fb2d 	bl	10003ca8 <__wrap___aeabi_memcpy>
1000464e:	4b27      	ldr	r3, [pc, #156]	@ (100046ec <nec_tx_init+0x1c4>)
10004650:	2005      	movs	r0, #5
10004652:	9304      	str	r3, [sp, #16]
10004654:	f7fd fa80 	bl	10001b58 <clock_get_hz>
10004658:	f7ff fabc 	bl	10003bd4 <__wrap___aeabi_ui2f>
1000465c:	4924      	ldr	r1, [pc, #144]	@ (100046f0 <nec_tx_init+0x1c8>)
1000465e:	f7ff fa9e 	bl	10003b9e <__wrap___aeabi_fdiv>
10004662:	4680      	mov	r8, r0
10004664:	f7ff fade 	bl	10003c24 <__wrap___aeabi_f2uiz>
10004668:	b285      	uxth	r5, r0
1000466a:	2000      	movs	r0, #0
1000466c:	2d00      	cmp	r5, #0
1000466e:	d122      	bne.n	100046b6 <nec_tx_init+0x18e>
10004670:	042d      	lsls	r5, r5, #16
10004672:	003a      	movs	r2, r7
10004674:	4305      	orrs	r5, r0
10004676:	ab02      	add	r3, sp, #8
10004678:	0031      	movs	r1, r6
1000467a:	0020      	movs	r0, r4
1000467c:	9502      	str	r5, [sp, #8]
1000467e:	f7ff ff07 	bl	10004490 <pio_sm_init>
10004682:	2301      	movs	r3, #1
10004684:	40b3      	lsls	r3, r6
10004686:	6822      	ldr	r2, [r4, #0]
10004688:	4313      	orrs	r3, r2
1000468a:	6023      	str	r3, [r4, #0]
1000468c:	0030      	movs	r0, r6
1000468e:	b00a      	add	sp, #40	@ 0x28
10004690:	bc80      	pop	{r7}
10004692:	46b8      	mov	r8, r7
10004694:	bdf0      	pop	{r4, r5, r6, r7, pc}
10004696:	0028      	movs	r0, r5
10004698:	f7ff fa9c 	bl	10003bd4 <__wrap___aeabi_ui2f>
1000469c:	1c01      	adds	r1, r0, #0
1000469e:	4640      	mov	r0, r8
100046a0:	f7ff fa77 	bl	10003b92 <__wrap___aeabi_fsub>
100046a4:	2187      	movs	r1, #135	@ 0x87
100046a6:	05c9      	lsls	r1, r1, #23
100046a8:	f7ff fa8d 	bl	10003bc6 <__wrap___aeabi_fmul>
100046ac:	f7ff faba 	bl	10003c24 <__wrap___aeabi_f2uiz>
100046b0:	b2c3      	uxtb	r3, r0
100046b2:	021b      	lsls	r3, r3, #8
100046b4:	e78f      	b.n	100045d6 <nec_tx_init+0xae>
100046b6:	0028      	movs	r0, r5
100046b8:	f7ff fa8c 	bl	10003bd4 <__wrap___aeabi_ui2f>
100046bc:	1c01      	adds	r1, r0, #0
100046be:	4640      	mov	r0, r8
100046c0:	f7ff fa67 	bl	10003b92 <__wrap___aeabi_fsub>
100046c4:	2187      	movs	r1, #135	@ 0x87
100046c6:	05c9      	lsls	r1, r1, #23
100046c8:	f7ff fa7d 	bl	10003bc6 <__wrap___aeabi_fmul>
100046cc:	f7ff faaa 	bl	10003c24 <__wrap___aeabi_f2uiz>
100046d0:	b2c0      	uxtb	r0, r0
100046d2:	0200      	lsls	r0, r0, #8
100046d4:	e7cc      	b.n	10004670 <nec_tx_init+0x148>
100046d6:	2601      	movs	r6, #1
100046d8:	4276      	negs	r6, r6
100046da:	e7d7      	b.n	1000468c <nec_tx_init+0x164>
100046dc:	10004d28 	.word	0x10004d28
100046e0:	afe00000 	.word	0xafe00000
100046e4:	48154e00 	.word	0x48154e00
100046e8:	10004d08 	.word	0x10004d08
100046ec:	400c0000 	.word	0x400c0000
100046f0:	455e38e4 	.word	0x455e38e4

100046f4 <nec_encode_frame>:
100046f4:	0003      	movs	r3, r0
100046f6:	43c8      	mvns	r0, r1
100046f8:	0409      	lsls	r1, r1, #16
100046fa:	4319      	orrs	r1, r3
100046fc:	43db      	mvns	r3, r3
100046fe:	0600      	lsls	r0, r0, #24
10004700:	b2db      	uxtb	r3, r3
10004702:	4308      	orrs	r0, r1
10004704:	021b      	lsls	r3, r3, #8
10004706:	4318      	orrs	r0, r3
10004708:	4770      	bx	lr
1000470a:	46c0      	nop			@ (mov r8, r8)

1000470c <nec_rx_init>:
1000470c:	b5f0      	push	{r4, r5, r6, r7, lr}
1000470e:	46c6      	mov	lr, r8
10004710:	4688      	mov	r8, r1
10004712:	0004      	movs	r4, r0
10004714:	b500      	push	{lr}
10004716:	2100      	movs	r1, #0
10004718:	4640      	mov	r0, r8
1000471a:	b08a      	sub	sp, #40	@ 0x28
1000471c:	2200      	movs	r2, #0
1000471e:	f7fb fea5 	bl	1000046c <gpio_set_pulls>
10004722:	4d40      	ldr	r5, [pc, #256]	@ (10004824 <nec_rx_init+0x118>)
10004724:	0020      	movs	r0, r4
10004726:	0029      	movs	r1, r5
10004728:	f7ff fdb2 	bl	10004290 <pio_can_add_program>
1000472c:	2800      	cmp	r0, #0
1000472e:	d100      	bne.n	10004732 <nec_rx_init+0x26>
10004730:	e075      	b.n	1000481e <nec_rx_init+0x112>
10004732:	0029      	movs	r1, r5
10004734:	0020      	movs	r0, r4
10004736:	f7ff fddf 	bl	100042f8 <pio_add_program>
1000473a:	2101      	movs	r1, #1
1000473c:	0007      	movs	r7, r0
1000473e:	0020      	movs	r0, r4
10004740:	f7ff fd88 	bl	10004254 <pio_claim_unused_sm>
10004744:	0006      	movs	r6, r0
10004746:	1c43      	adds	r3, r0, #1
10004748:	d069      	beq.n	1000481e <nec_rx_init+0x112>
1000474a:	4b37      	ldr	r3, [pc, #220]	@ (10004828 <nec_rx_init+0x11c>)
1000474c:	2500      	movs	r5, #0
1000474e:	18e1      	adds	r1, r4, r3
10004750:	1e4b      	subs	r3, r1, #1
10004752:	4199      	sbcs	r1, r3
10004754:	4640      	mov	r0, r8
10004756:	3106      	adds	r1, #6
10004758:	f7fb fe70 	bl	1000043c <gpio_set_function>
1000475c:	4642      	mov	r2, r8
1000475e:	2301      	movs	r3, #1
10004760:	0031      	movs	r1, r6
10004762:	0020      	movs	r0, r4
10004764:	9500      	str	r5, [sp, #0]
10004766:	f7ff fe3f 	bl	100043e8 <pio_sm_set_consecutive_pindirs>
1000476a:	2280      	movs	r2, #128	@ 0x80
1000476c:	23f8      	movs	r3, #248	@ 0xf8
1000476e:	0252      	lsls	r2, r2, #9
10004770:	025b      	lsls	r3, r3, #9
10004772:	9202      	str	r2, [sp, #8]
10004774:	9303      	str	r3, [sp, #12]
10004776:	9505      	str	r5, [sp, #20]
10004778:	23c0      	movs	r3, #192	@ 0xc0
1000477a:	003d      	movs	r5, r7
1000477c:	031b      	lsls	r3, r3, #12
1000477e:	2210      	movs	r2, #16
10004780:	a902      	add	r1, sp, #8
10004782:	a806      	add	r0, sp, #24
10004784:	3508      	adds	r5, #8
10004786:	9304      	str	r3, [sp, #16]
10004788:	032d      	lsls	r5, r5, #12
1000478a:	f7ff fa8d 	bl	10003ca8 <__wrap___aeabi_memcpy>
1000478e:	01fb      	lsls	r3, r7, #7
10004790:	2210      	movs	r2, #16
10004792:	431d      	orrs	r5, r3
10004794:	a906      	add	r1, sp, #24
10004796:	a802      	add	r0, sp, #8
10004798:	9507      	str	r5, [sp, #28]
1000479a:	f7ff fa85 	bl	10003ca8 <__wrap___aeabi_memcpy>
1000479e:	4b23      	ldr	r3, [pc, #140]	@ (1000482c <nec_rx_init+0x120>)
100047a0:	2005      	movs	r0, #5
100047a2:	9304      	str	r3, [sp, #16]
100047a4:	4643      	mov	r3, r8
100047a6:	03db      	lsls	r3, r3, #15
100047a8:	9305      	str	r3, [sp, #20]
100047aa:	4b21      	ldr	r3, [pc, #132]	@ (10004830 <nec_rx_init+0x124>)
100047ac:	401d      	ands	r5, r3
100047ae:	4643      	mov	r3, r8
100047b0:	061b      	lsls	r3, r3, #24
100047b2:	431d      	orrs	r5, r3
100047b4:	9503      	str	r5, [sp, #12]
100047b6:	f7fd f9cf 	bl	10001b58 <clock_get_hz>
100047ba:	f7ff f917 	bl	100039ec <__wrap___aeabi_ui2d>
100047be:	4b1d      	ldr	r3, [pc, #116]	@ (10004834 <nec_rx_init+0x128>)
100047c0:	4a1d      	ldr	r2, [pc, #116]	@ (10004838 <nec_rx_init+0x12c>)
100047c2:	f7ff f898 	bl	100038f6 <__wrap___aeabi_ddiv>
100047c6:	f7ff f959 	bl	10003a7c <__wrap___aeabi_d2f>
100047ca:	4680      	mov	r8, r0
100047cc:	f7ff fa2a 	bl	10003c24 <__wrap___aeabi_f2uiz>
100047d0:	b285      	uxth	r5, r0
100047d2:	2300      	movs	r3, #0
100047d4:	2d00      	cmp	r5, #0
100047d6:	d112      	bne.n	100047fe <nec_rx_init+0xf2>
100047d8:	042d      	lsls	r5, r5, #16
100047da:	003a      	movs	r2, r7
100047dc:	431d      	orrs	r5, r3
100047de:	0031      	movs	r1, r6
100047e0:	ab02      	add	r3, sp, #8
100047e2:	0020      	movs	r0, r4
100047e4:	9502      	str	r5, [sp, #8]
100047e6:	f7ff fe53 	bl	10004490 <pio_sm_init>
100047ea:	2301      	movs	r3, #1
100047ec:	40b3      	lsls	r3, r6
100047ee:	6822      	ldr	r2, [r4, #0]
100047f0:	4313      	orrs	r3, r2
100047f2:	6023      	str	r3, [r4, #0]
100047f4:	0030      	movs	r0, r6
100047f6:	b00a      	add	sp, #40	@ 0x28
100047f8:	bc80      	pop	{r7}
100047fa:	46b8      	mov	r8, r7
100047fc:	bdf0      	pop	{r4, r5, r6, r7, pc}
100047fe:	0028      	movs	r0, r5
10004800:	f7ff f9e8 	bl	10003bd4 <__wrap___aeabi_ui2f>
10004804:	1c01      	adds	r1, r0, #0
10004806:	4640      	mov	r0, r8
10004808:	f7ff f9c3 	bl	10003b92 <__wrap___aeabi_fsub>
1000480c:	2187      	movs	r1, #135	@ 0x87
1000480e:	05c9      	lsls	r1, r1, #23
10004810:	f7ff f9d9 	bl	10003bc6 <__wrap___aeabi_fmul>
10004814:	f7ff fa06 	bl	10003c24 <__wrap___aeabi_f2uiz>
10004818:	b2c3      	uxtb	r3, r0
1000481a:	021b      	lsls	r3, r3, #8
1000481c:	e7dc      	b.n	100047d8 <nec_rx_init+0xcc>
1000481e:	2601      	movs	r6, #1
10004820:	4276      	negs	r6, r6
10004822:	e7e7      	b.n	100047f4 <nec_rx_init+0xe8>
10004824:	10004d3c 	.word	0x10004d3c
10004828:	afe00000 	.word	0xafe00000
1000482c:	800d0000 	.word	0x800d0000
10004830:	e0ffffff 	.word	0xe0ffffff
10004834:	40d15c71 	.word	0x40d15c71
10004838:	c71c71c7 	.word	0xc71c71c7

1000483c <nec_decode_frame>:
1000483c:	b530      	push	{r4, r5, lr}
1000483e:	0404      	lsls	r4, r0, #16
10004840:	0e24      	lsrs	r4, r4, #24
10004842:	43e4      	mvns	r4, r4
10004844:	b2c5      	uxtb	r5, r0
10004846:	b2e4      	uxtb	r4, r4
10004848:	0003      	movs	r3, r0
1000484a:	2000      	movs	r0, #0
1000484c:	42ac      	cmp	r4, r5
1000484e:	d106      	bne.n	1000485e <nec_decode_frame+0x22>
10004850:	021d      	lsls	r5, r3, #8
10004852:	0e1b      	lsrs	r3, r3, #24
10004854:	43db      	mvns	r3, r3
10004856:	b2db      	uxtb	r3, r3
10004858:	0e2d      	lsrs	r5, r5, #24
1000485a:	42ab      	cmp	r3, r5
1000485c:	d000      	beq.n	10004860 <nec_decode_frame+0x24>
1000485e:	bd30      	pop	{r4, r5, pc}
10004860:	700c      	strb	r4, [r1, #0]
10004862:	3001      	adds	r0, #1
10004864:	7013      	strb	r3, [r2, #0]
10004866:	e7fa      	b.n	1000485e <nec_decode_frame+0x22>

10004868 <strlen>:
10004868:	b510      	push	{r4, lr}
1000486a:	0783      	lsls	r3, r0, #30
1000486c:	d00a      	beq.n	10004884 <strlen+0x1c>
1000486e:	0003      	movs	r3, r0
10004870:	2103      	movs	r1, #3
10004872:	e002      	b.n	1000487a <strlen+0x12>
10004874:	3301      	adds	r3, #1
10004876:	420b      	tst	r3, r1
10004878:	d005      	beq.n	10004886 <strlen+0x1e>
1000487a:	781a      	ldrb	r2, [r3, #0]
1000487c:	2a00      	cmp	r2, #0
1000487e:	d1f9      	bne.n	10004874 <strlen+0xc>
10004880:	1a18      	subs	r0, r3, r0
10004882:	bd10      	pop	{r4, pc}
10004884:	0003      	movs	r3, r0
10004886:	6819      	ldr	r1, [r3, #0]
10004888:	4a0c      	ldr	r2, [pc, #48]	@ (100048bc <strlen+0x54>)
1000488a:	4c0d      	ldr	r4, [pc, #52]	@ (100048c0 <strlen+0x58>)
1000488c:	188a      	adds	r2, r1, r2
1000488e:	438a      	bics	r2, r1
10004890:	4222      	tst	r2, r4
10004892:	d10f      	bne.n	100048b4 <strlen+0x4c>
10004894:	6859      	ldr	r1, [r3, #4]
10004896:	4a09      	ldr	r2, [pc, #36]	@ (100048bc <strlen+0x54>)
10004898:	3304      	adds	r3, #4
1000489a:	188a      	adds	r2, r1, r2
1000489c:	438a      	bics	r2, r1
1000489e:	4222      	tst	r2, r4
100048a0:	d108      	bne.n	100048b4 <strlen+0x4c>
100048a2:	6859      	ldr	r1, [r3, #4]
100048a4:	4a05      	ldr	r2, [pc, #20]	@ (100048bc <strlen+0x54>)
100048a6:	3304      	adds	r3, #4
100048a8:	188a      	adds	r2, r1, r2
100048aa:	438a      	bics	r2, r1
100048ac:	4222      	tst	r2, r4
100048ae:	d0f1      	beq.n	10004894 <strlen+0x2c>
100048b0:	e000      	b.n	100048b4 <strlen+0x4c>
100048b2:	3301      	adds	r3, #1
100048b4:	781a      	ldrb	r2, [r3, #0]
100048b6:	2a00      	cmp	r2, #0
100048b8:	d1fb      	bne.n	100048b2 <strlen+0x4a>
100048ba:	e7e1      	b.n	10004880 <strlen+0x18>
100048bc:	fefefeff 	.word	0xfefefeff
100048c0:	80808080 	.word	0x80808080

100048c4 <_fini>:
100048c4:	b5f8      	push	{r3, r4, r5, r6, r7, lr}
100048c6:	46c0      	nop			@ (mov r8, r8)

100048c8 <__mutex_exit_veneer>:
100048c8:	b401      	push	{r0}
100048ca:	4802      	ldr	r0, [pc, #8]	@ (100048d4 <__mutex_exit_veneer+0xc>)
100048cc:	4684      	mov	ip, r0
100048ce:	bc01      	pop	{r0}
100048d0:	4760      	bx	ip
100048d2:	bf00      	nop
100048d4:	2000015d 	.word	0x2000015d

100048d8 <____aeabi_ldiv0_veneer>:
100048d8:	b401      	push	{r0}
100048da:	4802      	ldr	r0, [pc, #8]	@ (100048e4 <____aeabi_ldiv0_veneer+0xc>)
100048dc:	4684      	mov	ip, r0
100048de:	bc01      	pop	{r0}
100048e0:	4760      	bx	ip
100048e2:	bf00      	nop
100048e4:	20000185 	.word	0x20000185

100048e8 <____aeabi_idiv0_veneer>:
100048e8:	b401      	push	{r0}
100048ea:	4802      	ldr	r0, [pc, #8]	@ (100048f4 <____aeabi_idiv0_veneer+0xc>)
100048ec:	4684      	mov	ip, r0
100048ee:	bc01      	pop	{r0}
100048f0:	4760      	bx	ip
100048f2:	bf00      	nop
100048f4:	20000185 	.word	0x20000185

100048f8 <__mutex_try_enter_block_until_veneer>:
100048f8:	b401      	push	{r0}
100048fa:	4802      	ldr	r0, [pc, #8]	@ (10004904 <__mutex_try_enter_block_until_veneer+0xc>)
100048fc:	4684      	mov	ip, r0
100048fe:	bc01      	pop	{r0}
10004900:	4760      	bx	ip
10004902:	bf00      	nop
10004904:	200000c1 	.word	0x200000c1

Disassembly of section .data:

200000c0 <mutex_try_enter_block_until>:
200000c0:	b5f0      	push	{r4, r5, r6, r7, lr}
200000c2:	46c6      	mov	lr, r8
200000c4:	0015      	movs	r5, r2
200000c6:	b500      	push	{lr}
200000c8:	0004      	movs	r4, r0
200000ca:	001e      	movs	r6, r3
200000cc:	6802      	ldr	r2, [r0, #0]
200000ce:	f3ef 8110 	mrs	r1, PRIMASK
200000d2:	b672      	cpsid	i
200000d4:	6813      	ldr	r3, [r2, #0]
200000d6:	2b00      	cmp	r3, #0
200000d8:	d0fc      	beq.n	200000d4 <mutex_try_enter_block_until+0x14>
200000da:	f3bf 8f5f 	dmb	sy
200000de:	2304      	movs	r3, #4
200000e0:	56e3      	ldrsb	r3, [r4, r3]
200000e2:	2b00      	cmp	r3, #0
200000e4:	db2d      	blt.n	20000142 <mutex_try_enter_block_until+0x82>
200000e6:	6822      	ldr	r2, [r4, #0]
200000e8:	f3bf 8f5f 	dmb	sy
200000ec:	2000      	movs	r0, #0
200000ee:	6010      	str	r0, [r2, #0]
200000f0:	f381 8810 	msr	PRIMASK, r1
200000f4:	22d0      	movs	r2, #208	@ 0xd0
200000f6:	0612      	lsls	r2, r2, #24
200000f8:	7812      	ldrb	r2, [r2, #0]
200000fa:	b252      	sxtb	r2, r2
200000fc:	4690      	mov	r8, r2
200000fe:	429a      	cmp	r2, r3
20000100:	d103      	bne.n	2000010a <mutex_try_enter_block_until+0x4a>
20000102:	2000      	movs	r0, #0
20000104:	bc80      	pop	{r7}
20000106:	46b8      	mov	r8, r7
20000108:	bdf0      	pop	{r4, r5, r6, r7, pc}
2000010a:	2700      	movs	r7, #0
2000010c:	e00b      	b.n	20000126 <mutex_try_enter_block_until+0x66>
2000010e:	6823      	ldr	r3, [r4, #0]
20000110:	f3bf 8f5f 	dmb	sy
20000114:	601f      	str	r7, [r3, #0]
20000116:	f381 8810 	msr	PRIMASK, r1
2000011a:	0028      	movs	r0, r5
2000011c:	0031      	movs	r1, r6
2000011e:	f000 f833 	bl	20000188 <__best_effort_wfe_or_timeout_veneer>
20000122:	2800      	cmp	r0, #0
20000124:	d1ed      	bne.n	20000102 <mutex_try_enter_block_until+0x42>
20000126:	6822      	ldr	r2, [r4, #0]
20000128:	f3ef 8110 	mrs	r1, PRIMASK
2000012c:	b672      	cpsid	i
2000012e:	6813      	ldr	r3, [r2, #0]
20000130:	2b00      	cmp	r3, #0
20000132:	d0fc      	beq.n	2000012e <mutex_try_enter_block_until+0x6e>
20000134:	f3bf 8f5f 	dmb	sy
20000138:	7923      	ldrb	r3, [r4, #4]
2000013a:	2b7f      	cmp	r3, #127	@ 0x7f
2000013c:	d9e7      	bls.n	2000010e <mutex_try_enter_block_until+0x4e>
2000013e:	4643      	mov	r3, r8
20000140:	e002      	b.n	20000148 <mutex_try_enter_block_until+0x88>
20000142:	23d0      	movs	r3, #208	@ 0xd0
20000144:	061b      	lsls	r3, r3, #24
20000146:	681b      	ldr	r3, [r3, #0]
20000148:	7123      	strb	r3, [r4, #4]
2000014a:	6823      	ldr	r3, [r4, #0]
2000014c:	f3bf 8f5f 	dmb	sy
20000150:	2200      	movs	r2, #0
20000152:	601a      	str	r2, [r3, #0]
20000154:	f381 8810 	msr	PRIMASK, r1
20000158:	2001      	movs	r0, #1
2000015a:	e7d3      	b.n	20000104 <mutex_try_enter_block_until+0x44>

2000015c <mutex_exit>:
2000015c:	6802      	ldr	r2, [r0, #0]
2000015e:	f3ef 8110 	mrs	r1, PRIMASK
20000162:	b672      	cpsid	i
20000164:	6813      	ldr	r3, [r2, #0]
20000166:	2b00      	cmp	r3, #0
20000168:	d0fc      	beq.n	20000164 <mutex_exit+0x8>
2000016a:	f3bf 8f5f 	dmb	sy
2000016e:	23ff      	movs	r3, #255	@ 0xff
20000170:	7103      	strb	r3, [r0, #4]
20000172:	6803      	ldr	r3, [r0, #0]
20000174:	f3bf 8f5f 	dmb	sy
20000178:	2200      	movs	r2, #0
2000017a:	601a      	str	r2, [r3, #0]
2000017c:	f381 8810 	msr	PRIMASK, r1
20000180:	bf40      	sev
20000182:	4770      	bx	lr

20000184 <__aeabi_idiv0>:
20000184:	4770      	bx	lr
20000186:	46c0      	nop			@ (mov r8, r8)

20000188 <__best_effort_wfe_or_timeout_veneer>:
20000188:	b401      	push	{r0}
2000018a:	4802      	ldr	r0, [pc, #8]	@ (20000194 <__best_effort_wfe_or_timeout_veneer+0xc>)
2000018c:	4684      	mov	ip, r0
2000018e:	bc01      	pop	{r0}
20000190:	4760      	bx	ip
20000192:	bf00      	nop
20000194:	10000f61 	.word	0x10000f61

20000198 <striped_spin_lock_num>:
20000198:	00000010                                ....

2000019c <irq_handler_chain_slots>:
2000019c:	00000000 	.word	0x00000000
200001a0:	00010000 	.word	0x00010000
	...
200001ac:	00020000 	.word	0x00020000
	...
200001b8:	00030000 	.word	0x00030000
	...
200001c4:	00ff0000 	.word	0x00ff0000
200001c8:	00000000 	.word	0x00000000

200001cc <irq_handler_chain_first_slot>:
200001cc:	b501      	push	{r0, lr}
200001ce:	6848      	ldr	r0, [r1, #4]
200001d0:	3101      	adds	r1, #1
200001d2:	468e      	mov	lr, r1
200001d4:	4700      	bx	r0

200001d6 <irq_handler_chain_remove_tail>:
200001d6:	4670      	mov	r0, lr
200001d8:	3809      	subs	r0, #9
200001da:	4901      	ldr	r1, [pc, #4]	@ (200001e0 <irq_handler_chain_remove_tail+0xa>)
200001dc:	4788      	blx	r1
200001de:	bd01      	pop	{r0, pc}
200001e0:	1000082d 	.word	0x1000082d

200001e4 <default_alarm_pool>:
200001e4:	200001fc 00000000 20000290 200004cc     ... ....... ... 
	...

200001fc <default_alarm_pool_heap>:
200001fc:	200004dc 00000000 00000000 00000010     ... ............
2000020c:	00000000                                ....

20000210 <aeabi_bits_funcs>:
20000210:	00003350 	.word	0x00003350
20000214:	0000334c 	.word	0x0000334c
20000218:	00003354 	.word	0x00003354
2000021c:	00003352 	.word	0x00003352

20000220 <aeabi_bits_funcs_end>:
20000220:	0000534d 	.word	0x0000534d
20000224:	0000434d 	.word	0x0000434d
20000228:	00003453 	.word	0x00003453
2000022c:	00003443 	.word	0x00003443

20000230 <stdio_uart>:
20000230:	10004075 00000000 100040c1 10004181     u@.......@...A..
20000240:	00000000 00000100                       ........

20000248 <print_mutex>:
	...

20000250 <__mutex_array_end>:
20000250:	10003c99 	.word	0x10003c99
20000254:	100033a9 	.word	0x100033a9
20000258:	10003a99 	.word	0x10003a99
2000025c:	10003c3d 	.word	0x10003c3d

20000260 <__frame_dummy_init_array_entry>:
20000260:	10000331                                1...
